Microchip Technology Inc, v2.10 (B)

Tool Name:
  c:\program files\microchip\xc16\v2.10\bin\bin\..\bin/elf-ld.exe

Command:
  -p24FJ256GA705 \
  --mdfp=C:/Program Files/Microchip/MPLABX/v6.05/packs/Microchip/PIC24F-GA-GB_DFP/1.8.217/xc16 \
  -o \
  dist/default/production/CuriosityOledBase.X.production.elf \
  -Lc:/program files/microchip/xc16/v2.10/bin/bin/.. \
  -LC:/Program Files/Microchip/MPLABX/v6.05/packs/Microchip/PIC24F-GA-GB_DFP/1.8.217/xc16/bin/../support/PIC24F/gld \
  -Lc:/program files/microchip/xc16/v2.10/bin/bin/../../lib \
  -Lc:/program files/microchip/xc16/v2.10/bin/bin/../../support/PIC24E/gld \
  -Lc:/program files/microchip/xc16/v2.10/bin/bin/../../support/PIC24F/gld \
  -Lc:/program files/microchip/xc16/v2.10/bin/bin/../../support/PIC24H/gld \
  -Lc:/program files/microchip/xc16/v2.10/bin/bin/../../support/dsPIC30F/gld \
  -Lc:/program files/microchip/xc16/v2.10/bin/bin/../../support/dsPIC33C/gld \
  -Lc:/program files/microchip/xc16/v2.10/bin/bin/../../support/dsPIC33E/gld \
  -Lc:/program files/microchip/xc16/v2.10/bin/bin/../../support/dsPIC33F/gld \
  build/default/production/accel3Driver/ACCEL3.o \
  build/default/production/adcDriver/ADC.o \
  build/default/production/i2cDriver/I2C.o \
  build/default/production/ledDriver/LED_tests.o \
  build/default/production/oledDriver/oledC.o \
  build/default/production/oledDriver/oledC_shapeHandler.o \
  build/default/production/oledDriver/oledC_shapes.o \
  build/default/production/spiDriver/spi1_driver.o \
  build/default/production/switchDriver/Switch.o \
  build/default/production/System/clock.o \
  build/default/production/System/delay.o \
  build/default/production/System/interrupt_manager.o \
  build/default/production/System/pin_manager.o \
  build/default/production/System/system.o \
  build/default/production/System/traps.o \
  build/default/production/System/where_was_i.o \
  build/default/production/WatchApp/pomodoroTimer/pomodoro.o \
  build/default/production/WatchApp/shared/watch_state.o \
  build/default/production/WatchApp/watchCore/alarm.o \
  build/default/production/WatchApp/watchCore/timekeeper.o \
  build/default/production/WatchApp/watchFaces/analog_face.o \
  build/default/production/WatchApp/watchFaces/binary_face.o \
  build/default/production/WatchApp/watchFaces/digital_face.o \
  build/default/production/WatchApp/watchInput/accel_input.o \
  build/default/production/WatchApp/watchInput/buttons.o \
  build/default/production/WatchApp/watchInput/potentiometer.o \
  build/default/production/WatchApp/watchMenu/menu.o \
  build/default/production/Timers/Timers.o \
  build/default/production/WatchApp/app_init.o \
  build/default/production/WatchApp/watchManagers/app_display_manager.o \
  build/default/production/WatchApp/watchManagers/app_input_handler.o \
  build/default/production/WatchApp/watchManagers/app_time_manager.o \
  build/default/production/main.o \
  build/default/production/WatchApp/watch_main.o \
  build/default/production/WatchApp/watchFaces/alarm_face.o \
  build/default/production/WatchApp/watchFaces/watch_face_common.o \
  build/default/production/WatchApp/watchFaces/watch_face_geometry.o \
  --local-stack \
  --defsym=__MPLAB_BUILD=1 \
  -Tp24FJ256GA705.gld.00 \
  --stack=16 \
  --check-sections \
  --data-init \
  --pack-data \
  --handles \
  --isr \
  --no-gc-sections \
  --fill-upper=0 \
  --stackguard=16 \
  --no-force-link \
  --smart-io \
  -Map=dist/default/production/CuriosityOledBase.X.production.map \
  --report-mem \
  --memorysummary \
  dist/default/production/memoryfile.xml \
  -start-group \
  --library=c99-pic30-elf \
  --library=m-elf \
  --library=c99-elf \
  -end-group \


Optional library libpPIC24Fxxx.a not found
Archive member included because of file (symbol)

c:/program files/microchip/xc16/v2.10/bin/bin/../../lib\libc99-pic30-elf.a(crt0_extended24.o)
                              (__resetPRI)
c:/program files/microchip/xc16/v2.10/bin/bin/../../lib\libc99-pic30-elf.a(data_init_24.o)
                              c:/program files/microchip/xc16/v2.10/bin/bin/../../lib\libc99-pic30-elf.a(crt0_extended24.o) (__data_init_da)
c:/program files/microchip/xc16/v2.10/bin/bin/../../lib\libc99-pic30-elf.a(crt_start_mode_normalda.Meo)
                              (__crt_start_mode_normal)
c:/program files/microchip/xc16/v2.10/bin/bin/../../lib\libc99-pic30-elf.a(delay32da.Meo)
                              build/default/production/System/delay.o (___delay32)
c:/program files/microchip/xc16/v2.10/bin/bin/../../lib\libc99-pic30-elf.a(floatunsisf.DA_o)
                              build/default/production/adcDriver/ADC.o (___floatunsisf)
c:/program files/microchip/xc16/v2.10/bin/bin/../../lib\libc99-pic30-elf.a(udivsi3.DA_o)
                              build/default/production/i2cDriver/I2C.o (___udivsi3)
c:/program files/microchip/xc16/v2.10/bin/bin/../../lib\libc99-pic30-elf.a(umodsi3.DA_o)
                              build/default/production/WatchApp/watchCore/timekeeper.o (___umodsi3)
c:/program files/microchip/xc16/v2.10/bin/bin/../../lib\libc99-pic30-elf.a(divsf3x.DA_o)
                              build/default/production/adcDriver/ADC.o (___divsf3)
c:/program files/microchip/xc16/v2.10/bin/bin/../../lib\libc99-pic30-elf.a(typefx.DA_o)
                              c:/program files/microchip/xc16/v2.10/bin/bin/../../lib\libc99-pic30-elf.a(divsf3x.DA_o) (__typef)
c:/program files/microchip/xc16/v2.10/bin/bin/../../lib\libc99-pic30-elf.a(spackfx.DA_o)
                              c:/program files/microchip/xc16/v2.10/bin/bin/../../lib\libc99-pic30-elf.a(divsf3x.DA_o) (__spackf)
c:/program files/microchip/xc16/v2.10/bin/bin/../../lib\libc99-pic30-elf.a(unpackfx.DA_o)
                              c:/program files/microchip/xc16/v2.10/bin/bin/../../lib\libc99-pic30-elf.a(divsf3x.DA_o) (__unpackf)
c:/program files/microchip/xc16/v2.10/bin/bin/../../lib\libc99-pic30-elf.a(errno.DA_o)
                              c:/program files/microchip/xc16/v2.10/bin/bin/../../lib\libc99-pic30-elf.a(divsf3x.DA_o) (_errno)
c:/program files/microchip/xc16/v2.10/bin/bin/../../lib\libc99-pic30-elf.a(floatundisf.DA_o)
                              c:/program files/microchip/xc16/v2.10/bin/bin/../../lib\libc99-pic30-elf.a(floatunsisf.DA_o) (___floatundisf)
c:/program files/microchip/xc16/v2.10/bin/bin/../../lib\libc99-pic30-elf.a(fpack.DA_o)
                              c:/program files/microchip/xc16/v2.10/bin/bin/../../lib\libc99-pic30-elf.a(floatundisf.DA_o) (__fpack)
c:/program files/microchip/xc16/v2.10/bin/bin/../../lib\libc99-elf.a(__sio_sprintf_doux.DA_o)
                              build/default/production/WatchApp/pomodoroTimer/pomodoro.o (__sprintf_cdnopuxX)
c:/program files/microchip/xc16/v2.10/bin/bin/../../lib\libc99-elf.a(memset.DA_o)
                              build/default/production/WatchApp/shared/watch_state.o (_memset)
c:/program files/microchip/xc16/v2.10/bin/bin/../../lib\libc99-elf.a(strlen.DA_o)
                              build/default/production/WatchApp/watchMenu/menu.o (_strlen)
c:/program files/microchip/xc16/v2.10/bin/bin/../../lib\libc99-elf.a(__fmt_d.DA_o)
                              c:/program files/microchip/xc16/v2.10/bin/bin/../../lib\libc99-elf.a(__sio_sprintf_doux.DA_o) (___fmt_d_needed)
c:/program files/microchip/xc16/v2.10/bin/bin/../../lib\libc99-elf.a(__fmt_o.DA_o)
                              c:/program files/microchip/xc16/v2.10/bin/bin/../../lib\libc99-elf.a(__sio_sprintf_doux.DA_o) (___fmt_o_needed)
c:/program files/microchip/xc16/v2.10/bin/bin/../../lib\libc99-elf.a(__fmt_s.DA_o)
                              c:/program files/microchip/xc16/v2.10/bin/bin/../../lib\libc99-elf.a(__sio_sprintf_doux.DA_o) (___fmt_s_needed)
c:/program files/microchip/xc16/v2.10/bin/bin/../../lib\libc99-elf.a(__fmt_u.DA_o)
                              c:/program files/microchip/xc16/v2.10/bin/bin/../../lib\libc99-elf.a(__fmt_d.DA_o) (___cvt_u)
c:/program files/microchip/xc16/v2.10/bin/bin/../../lib\libc99-elf.a(__fmt_x.DA_o)
                              c:/program files/microchip/xc16/v2.10/bin/bin/../../lib\libc99-elf.a(__sio_sprintf_doux.DA_o) (___fmt_x_needed)
c:/program files/microchip/xc16/v2.10/bin/bin/../../lib\libc99-elf.a(__int_vsprintf.DA_o)
                              c:/program files/microchip/xc16/v2.10/bin/bin/../../lib\libc99-elf.a(__sio_sprintf_doux.DA_o) (___vsprintf)
c:/program files/microchip/xc16/v2.10/bin/bin/../../lib\libc99-elf.a(__pop_int.DA_o)
                              c:/program files/microchip/xc16/v2.10/bin/bin/../../lib\libc99-elf.a(__sio_sprintf_doux.DA_o) (___pop_int_needed)
c:/program files/microchip/xc16/v2.10/bin/bin/../../lib\libc99-elf.a(__pop_ptr.DA_o)
                              c:/program files/microchip/xc16/v2.10/bin/bin/../../lib\libc99-elf.a(__sio_sprintf_doux.DA_o) (___pop_ptr_needed)
c:/program files/microchip/xc16/v2.10/bin/bin/../../lib\libc99-elf.a(__printf_core.DA_o)
                              c:/program files/microchip/xc16/v2.10/bin/bin/../../lib\libc99-elf.a(__fmt_d.DA_o) (___pad)
c:/program files/microchip/xc16/v2.10/bin/bin/../../lib\libc99-elf.a(atoi.DA_o)
                              c:/program files/microchip/xc16/v2.10/bin/bin/../../lib\libc99-elf.a(__printf_core.DA_o) (_atoi)
c:/program files/microchip/xc16/v2.10/bin/bin/../../lib\libc99-elf.a(memcpy.DA_o)
                              c:/program files/microchip/xc16/v2.10/bin/bin/../../lib\libc99-elf.a(__printf_core.DA_o) (_memcpy)
c:/program files/microchip/xc16/v2.10/bin/bin/../../lib\libc99-elf.a(tolower.DA_o)
                              c:/program files/microchip/xc16/v2.10/bin/bin/../../lib\libc99-elf.a(__printf_core.DA_o) (_tolower)
c:/program files/microchip/xc16/v2.10/bin/bin/../../lib\libc99-elf.a(toupper.DA_o)
                              c:/program files/microchip/xc16/v2.10/bin/bin/../../lib\libc99-elf.a(__fmt_x.DA_o) (_toupper)
c:/program files/microchip/xc16/v2.10/bin/bin/../../lib\libc99-elf.a(__errno_location.DA_o)
                              c:/program files/microchip/xc16/v2.10/bin/bin/../../lib\libc99-elf.a(__printf_core.DA_o) (___errno_val)
c:/program files/microchip/xc16/v2.10/bin/bin/../../lib\libc99-elf.a(__int_vsnprintf.DA_o)
                              c:/program files/microchip/xc16/v2.10/bin/bin/../../lib\libc99-elf.a(__int_vsprintf.DA_o) (___vsnprintf)
c:/program files/microchip/xc16/v2.10/bin/bin/../../lib\libc99-elf.a(__pop_float.DA_o)
                              c:/program files/microchip/xc16/v2.10/bin/bin/../../lib\libc99-elf.a(__printf_core.DA_o) (___pop_float)
c:/program files/microchip/xc16/v2.10/bin/bin/../../lib\libc99-elf.a(__int_vfprintf.DA_o)
                              c:/program files/microchip/xc16/v2.10/bin/bin/../../lib\libc99-elf.a(__int_vsnprintf.DA_o) (___vfprintf)
c:/program files/microchip/xc16/v2.10/bin/bin/../../lib\libc99-pic30-elf.a(extendsfdf.DA_o)
                              c:/program files/microchip/xc16/v2.10/bin/bin/../../lib\libc99-elf.a(__pop_float.DA_o) (___extendsfdf2)
c:/program files/microchip/xc16/v2.10/bin/bin/../../lib\libc99-pic30-elf.a(funpack.DA_o)
                              c:/program files/microchip/xc16/v2.10/bin/bin/../../lib\libc99-pic30-elf.a(extendsfdf.DA_o) (__funpack)
c:/program files/microchip/xc16/v2.10/bin/bin/../../lib\libc99-pic30-elf.a(mulsi3.DA_o)
                              c:/program files/microchip/xc16/v2.10/bin/bin/../../lib\libc99-elf.a(memset.DA_o) (___mulsi3)
c:/program files/microchip/xc16/v2.10/bin/bin/../../lib\libc99-pic30-elf.a(divmoddi3.DA_o)
                              c:/program files/microchip/xc16/v2.10/bin/bin/../../lib\libc99-elf.a(__fmt_u.DA_o) (___udivdi3)


Selected CodeGuard Options:
  FSEC:BWRP:OFF
  FSEC:BSS:DISABLED
  FSEC:BSEN:OFF
  FSEC:GWRP:OFF
  FSEC:GSS:DISABLED
  FSEC:CWRP:OFF
  FSEC:CSS:DISABLED
  FSEC:AIVTDIS:OFF

CodeGuard FLASH Memory:
  boot    (none)
  secure  (none)
  general 0x100 to 0x2aefe

CodeGuard RAM Memory:
  general 0x800 to 0x47ff
  secure  (none)
  boot    (none)


xc16-ld 2.10 (B)

Default Code Model: Small
Default Data Model: Large
Default Scalar Model: Small

"program" Memory  [Origin = 0x100, Length = 0x2ae00]

section                    address   length (PC units)   length (bytes) (dec)
-------                    -------   -----------------   --------------------
.text                        0x100              0x1340          0x1ce0  (7392)
.const                      0x1440               0x5bc           0x89a  (2202)
.text                       0x19fc              0x385e          0x548d  (21645)
.dinit                      0x525a               0x10e           0x195  (405)
.text                       0x5368               0x5f6           0x8f1  (2289)
.init.delay32               0x595e                0x1c            0x2a  (42)
.text                       0x597a                0x24            0x36  (54)

                 Total "program" memory used (bytes):         0x84ed  (34029) 12%


"data" Memory  [Origin = 0x800, Length = 0x4000]

section                    address      alignment gaps    total length  (dec)
-------                    -------      --------------    -------------------
.nbss                        0x800                   0            0x28  (40)
System/where_was_i.s.scn1     0x828                   0             0x4  (4)
.nbss                        0x82c                   0             0x4  (4)
.ndata                       0x830                   0             0x4  (4)
.nbss                        0x834                   0             0xc  (12)
.ndata                       0x840                   0             0x2  (2)
.nbss                        0x842                   0             0x2  (2)
.ndata                       0x844                   0             0x4  (4)
.nbss                        0x848                   0             0x2  (2)
.ndata                       0x84a                   0             0x4  (4)
.nbss                        0x84e                   0             0x2  (2)
.ndata                       0x850                   0             0x2  (2)
.nbss                        0x852                   0             0x4  (4)
.bss                         0x856                   0           0x278  (632)
.data                        0xace                   0            0x36  (54)
.bss                         0xb04                   0            0x36  (54)

                 Total "data" memory used (bytes):          0x33a  (826) 5%


Dynamic Memory Usage

region                     address                      maximum length  (dec)
------                     -------                      ---------------------
heap                             0                                   0  (0)
stack                        0xb3a                              0x3cc6  (15558)

                 Maximum dynamic memory (bytes):         0x3cc6  (15558)

Info: Project is using a large data memory model when small data memory model is sufficient.


External Symbols in Data Memory (by address):

                    0x081c                  _t1_ticks
                    0x0820                  _t2_ticks
                    0x0828                  _trapSrcAddr
                    0x0842                  _spi1_interruptHandler
                    0x0b38                  ___errno_val

External Symbols in Data Memory (by name):

                    0x0b38                  ___errno_val
                    0x0842                  _spi1_interruptHandler
                    0x081c                  _t1_ticks
                    0x0820                  _t2_ticks
                    0x0828                  _trapSrcAddr

External Symbols in Program Memory (by address):

                  0x000100                  __resetPRI
                  0x00013c                  __psv_init
                  0x000152                  __data_init
                  0x000152                  __data_init_da
                  0x0002ca                  __T1Interrupt
                  0x0002e2                  __T2Interrupt
                  0x0002fa                  __DefaultInterrupt
                  0x000300                  ___floatunsisf
                  0x000304                  ___udivsi3
                  0x000324                  ___umodsi3
                  0x00032a                  ___divsf3
                  0x00032a                  ___divsf3x
                  0x0004bc                  __sdivf
                  0x0004e8                  __typef
                  0x00051c                  __spackf
                  0x0005c2                  __unpackf
                  0x000628                  ___floatundisf
                  0x000686                  __fpack
                  0x0006de                  ___sio_sprintf_doux
                  0x0006ec                  _memset
                  0x0007b4                  _strlen
                  0x0007e4                  ___fmt_d
                  0x000896                  ___fmt_o
                  0x000900                  ___fmt_s
                  0x000954                  ___cvt_u
                  0x0009fa                  ___fmt_u
                  0x000a4c                  ___fmt_x
                  0x000b96                  ___vsprintf
                  0x000b9e                  ___pop_int
                  0x000c46                  ___pop_ptr
                  0x000cdc                  ___pad
                  0x000d56                  ___fmt_state
                  0x00105a                  ___printf_core
                  0x0010ae                  _atoi
                  0x0010fa                  _memcpy
                  0x001108                  _tolower
                  0x001114                  ___tolower_l
                  0x001116                  _toupper
                  0x001122                  ___toupper_l
                  0x001124                  ___vsnprintf
                  0x00116e                  ___pop_float
                  0x0011ac                  ___vfprintf
                  0x0011c8                  ___extendsfdf2
                  0x001206                  __funpack
                  0x001230                  ___mulp32eds3
                  0x001230                  ___mulsi3
                  0x001230                  ___mulp32peds3
                  0x001288                  ___udivmoddi3
                  0x00136e                  ___udivdi3
                  0x00137c                  ___umoddi3
                  0x001384                  ___divdi3
                  0x0013e4                  ___moddi3
                  0x00174c                  _main_menu
                  0x0017e2                  _HOUR_POINTS
                  0x00185a                  _MIN_POINTS
                  0x0018d2                  _SEC_POINTS
                  0x0019fc                  _oledC_createShape
                  0x001b2c                  _oledC_ReadPoint
                  0x001b5c                  _oledC_DrawPoint
                  0x001b94                  _oledC_DrawThickPoint
                  0x001c9c                  _oledC_DrawCircle
                  0x001dae                  _oledC_DrawRing
                  0x001eaa                  _oledC_DrawLine
                  0x001fbc                  _oledC_DrawRectangle
                  0x00200a                  _oledC_DrawCharacter
                  0x0020c8                  _oledC_DrawString
                  0x00210e                  _oledC_DrawBitmap
                  0x0021e2                  build/default/production/oledDriver/oledC_shapes.o:_drawPoint
                  0x0021f8                  build/default/production/oledDriver/oledC_shapes.o:_drawCircle
                  0x002212                  build/default/production/oledDriver/oledC_shapes.o:_drawRing
                  0x002230                  build/default/production/oledDriver/oledC_shapes.o:_drawRectangle
                  0x00224e                  build/default/production/oledDriver/oledC_shapes.o:_drawLine
                  0x002270                  build/default/production/oledDriver/oledC_shapes.o:_drawCharacter
                  0x002292                  build/default/production/oledDriver/oledC_shapes.o:_drawString
                  0x0022b4                  build/default/production/oledDriver/oledC_shapes.o:_drawBitmap
                  0x00241c                  _test_discrete_leds
                  0x002498                  _test_rgb_raw_pwm
                  0x0024f2                  _test_rgb_color_constants
                  0x002594                  _test_rgb_intensity_scaling
                  0x00264e                  _test_raw_vs_scaled
                  0x00269e                  _test_rgb_intensity_fade
                  0x002762                  _test_rgb_color_wheel
                  0x002828                  _test_rgb_edge_cases
                  0x002882                  _test_custom_colors
                  0x0028fa                  _test_rainbow_sequence
                  0x002952                  _test_intensity_persistence
                  0x0029c8                  _LED_RunTests
                  0x002f7c                  _Menu_Init
                  0x002f94                  _Menu_Enter
                  0x002fb6                  _Menu_Exit
                  0x002fcc                  _Menu_HandleInput
                  0x003050                  _Menu_DrawFull
                  0x0030e2                  _Menu_DrawPartial
                  0x0031dc                  _BinaryFace_Init
                  0x0032e6                  _BinaryFace_Draw
                  0x0032ee                  _BinaryFace_DrawUpdate
                  0x0034de                  _i2c_init
                  0x0036ee                  _i2c_writeReg
                  0x003734                  _i2c_readRegs
                  0x0037be                  _i2c_readReg
                  0x003870                  _oledC_parseIntToRGB
                  0x0038be                  _oledC_parseRGBToInt
                  0x003908                  _oledC_sendCommand
                  0x003946                  _oledC_setRowAddressBounds
                  0x003970                  _oledC_setColumnAddressBounds
                  0x0039a6                  _oledC_setSleepMode
                  0x0039c0                  _oledC_readColor
                  0x0039de                  _oledC_sendColor
                  0x0039f4                  _oledC_sendColorInt
                  0x003a1a                  _oledC_open
                  0x003a22                  _oledC_setup
                  0x003a64                  _oledC_clearScreen
                  0x003a9e                  _oledC_setBackground
                  0x003aac                  _oledC_getBackground
                  0x003b4c                  _DigitalFace_Init
                  0x003b72                  _DigitalFace_Draw
                  0x003c1a                  _DigitalFace_DrawUpdate
                  0x003e6a                  _Pomodoro_Init
                  0x003e8c                  _Pomodoro_Start
                  0x003ea8                  _Pomodoro_Pause
                  0x003eb8                  _Pomodoro_Reset
                  0x003ec0                  _Pomodoro_Update
                  0x003f1a                  _Pomodoro_Draw
                  0x003fe8                  _Pomodoro_HandleInput
                  0x004166                  _AnalogFace_Init
                  0x004214                  _AnalogFace_DrawUpdate
                  0x00427e                  _AnalogFace_Draw
                  0x0042c2                  _ADC_Init
                  0x004384                  _ADC_SetChannel
                  0x0043c6                  _ADC_ReadRaw
                  0x004414                  _ADC_ReadFloat
                  0x00449c                  _ADC_IsInitialized
                  0x0044a4                  _ADC_GetConfig
                  0x0044de                  _ADC_Disable
                  0x0044e8                  _Timekeeper_Init
                  0x004520                  _Timekeeper_SetTime
                  0x004566                  _Timekeeper_SetDate
                  0x0045ba                  _Timekeeper_GetTime
                  0x0046a4                  _Timekeeper_GetDate
                  0x0046b8                  _Timekeeper_GetMillis
                  0x0046c2                  _Timekeeper_Convert24to12
                  0x0046f2                  _Timekeeper_GetDaysInMonth
                  0x004712                  build/default/production/oledDriver/oledC_shapeHandler.o:_dummyshape
                  0x00471a                  _initShapesMem
                  0x004746                  _oledC_removeShape
                  0x00477c                  _oledC_getShape
                  0x004798                  _oledC_addShape
                  0x0047f2                  _oledC_redrawIndex
                  0x004810                  _oledC_redrawTo
                  0x00481e                  _oledC_redrawFrom
                  0x00482c                  _oledC_redrawSome
                  0x004878                  _oledC_eraseShape
                  0x0048a2                  _oledC_eraseAll
                  0x0048ce                  _oledC_redrawAll
                  0x0049ec                  _AccelInput_Init
                  0x004a00                  _AccelInput_Check
                  0x004b3a                  _Switch_Init
                  0x004b8e                  _S1_WasPressed
                  0x004baa                  _S1_WasReleased
                  0x004bc6                  _S2_WasPressed
                  0x004be2                  _S2_WasReleased
                  0x004bfe                  _Switch_ResetState
                  0x004d7e                  _APP_HandleInputEvents
                  0x004db6                  _Alarm_Init
                  0x004dbc                  _Alarm_Check
                  0x004e20                  _Alarm_SetTime
                  0x004e4e                  _Alarm_Enable
                  0x004e64                  _Alarm_Disable
                  0x004e80                  _Alarm_Toggle
                  0x004e98                  _Alarm_Dismiss
                  0x004ec0                  _Alarm_IsRinging
                  0x004ece                  _Alarm_Update
                  0x004ef4                  _Buttons_Init
                  0x004efc                  _Buttons_Update
                  0x004fee                  _Buttons_GetState
                  0x005020                  _Pot_Init
                  0x00504e                  _Pot_GetRaw
                  0x00505a                  _Pot_GetMapped
                  0x0050d8                  _Pot_GetMenuSelection
                  0x00514a                  _spi1_close
                  0x005152                  _spi1_open
                  0x005172                  _spi1_exchangeByte
                  0x00518c                  _spi1_exchangeBlock
                  0x0051be                  _spi1_writeBlock
                  0x0051ec                  _spi1_readBlock
                  0x00521c                  _spi1_writeByte
                  0x005228                  _spi1_readByte
                  0x005232                  _spi1_isr
                  0x00524e                  _spi1_setSpiISR
                  0x005368                  _WatchFace_DrawAlarmIcon
                  0x0053ac                  _WatchFace_DrawDate
                  0x0054c8                  _APP_UpdateDisplay
                  0x0054fe                  _ACCEL3_Init
                  0x00555a                  _ACCEL3_ReadXYZ
                  0x0055bc                  _Timer1_Init
                  0x005602                  _Timer2_Init
                  0x005648                  _Timer_GetTicks
                  0x005674                  _PIN_MANAGER_Initialize
                  0x0056e4                  _Watch_GetState
                  0x0056ec                  _Watch_InitState
                  0x005750                  _AlarmFace_Init
                  0x005766                  _AlarmFace_Draw
                  0x00577a                  _AlarmFace_DrawUpdate
                  0x0057b8                  _APP_InitializeHardware
                  0x005818                  _DELAY_milliseconds
                  0x00583a                  _DELAY_microseconds
                  0x00586e                  _CLOCK_Initialize
                  0x0058b4                  _APP_UpdateTimeAndAlarms
                  0x005902                  _INTERRUPT_Initialize
                  0x00591e                  _watch_main
                  0x00595e                  ___delay32
                  0x00597a                  _where_was_i
                  0x00598a                  _SYSTEM_Initialize
                  0x005996                  _main
                  0x02af00                  __FSEC.sec

External Symbols in Program Memory (by name):

                  0x0054fe                  _ACCEL3_Init
                  0x00555a                  _ACCEL3_ReadXYZ
                  0x0044de                  _ADC_Disable
                  0x0044a4                  _ADC_GetConfig
                  0x0042c2                  _ADC_Init
                  0x00449c                  _ADC_IsInitialized
                  0x004414                  _ADC_ReadFloat
                  0x0043c6                  _ADC_ReadRaw
                  0x004384                  _ADC_SetChannel
                  0x004d7e                  _APP_HandleInputEvents
                  0x0057b8                  _APP_InitializeHardware
                  0x0054c8                  _APP_UpdateDisplay
                  0x0058b4                  _APP_UpdateTimeAndAlarms
                  0x004a00                  _AccelInput_Check
                  0x0049ec                  _AccelInput_Init
                  0x005766                  _AlarmFace_Draw
                  0x00577a                  _AlarmFace_DrawUpdate
                  0x005750                  _AlarmFace_Init
                  0x004dbc                  _Alarm_Check
                  0x004e64                  _Alarm_Disable
                  0x004e98                  _Alarm_Dismiss
                  0x004e4e                  _Alarm_Enable
                  0x004db6                  _Alarm_Init
                  0x004ec0                  _Alarm_IsRinging
                  0x004e20                  _Alarm_SetTime
                  0x004e80                  _Alarm_Toggle
                  0x004ece                  _Alarm_Update
                  0x00427e                  _AnalogFace_Draw
                  0x004214                  _AnalogFace_DrawUpdate
                  0x004166                  _AnalogFace_Init
                  0x0032e6                  _BinaryFace_Draw
                  0x0032ee                  _BinaryFace_DrawUpdate
                  0x0031dc                  _BinaryFace_Init
                  0x004fee                  _Buttons_GetState
                  0x004ef4                  _Buttons_Init
                  0x004efc                  _Buttons_Update
                  0x00586e                  _CLOCK_Initialize
                  0x00583a                  _DELAY_microseconds
                  0x005818                  _DELAY_milliseconds
                  0x003b72                  _DigitalFace_Draw
                  0x003c1a                  _DigitalFace_DrawUpdate
                  0x003b4c                  _DigitalFace_Init
                  0x0017e2                  _HOUR_POINTS
                  0x005902                  _INTERRUPT_Initialize
                  0x0029c8                  _LED_RunTests
                  0x00185a                  _MIN_POINTS
                  0x003050                  _Menu_DrawFull
                  0x0030e2                  _Menu_DrawPartial
                  0x002f94                  _Menu_Enter
                  0x002fb6                  _Menu_Exit
                  0x002fcc                  _Menu_HandleInput
                  0x002f7c                  _Menu_Init
                  0x005674                  _PIN_MANAGER_Initialize
                  0x003f1a                  _Pomodoro_Draw
                  0x003fe8                  _Pomodoro_HandleInput
                  0x003e6a                  _Pomodoro_Init
                  0x003ea8                  _Pomodoro_Pause
                  0x003eb8                  _Pomodoro_Reset
                  0x003e8c                  _Pomodoro_Start
                  0x003ec0                  _Pomodoro_Update
                  0x00505a                  _Pot_GetMapped
                  0x0050d8                  _Pot_GetMenuSelection
                  0x00504e                  _Pot_GetRaw
                  0x005020                  _Pot_Init
                  0x004b8e                  _S1_WasPressed
                  0x004baa                  _S1_WasReleased
                  0x004bc6                  _S2_WasPressed
                  0x004be2                  _S2_WasReleased
                  0x0018d2                  _SEC_POINTS
                  0x00598a                  _SYSTEM_Initialize
                  0x004b3a                  _Switch_Init
                  0x004bfe                  _Switch_ResetState
                  0x0046c2                  _Timekeeper_Convert24to12
                  0x0046a4                  _Timekeeper_GetDate
                  0x0046f2                  _Timekeeper_GetDaysInMonth
                  0x0046b8                  _Timekeeper_GetMillis
                  0x0045ba                  _Timekeeper_GetTime
                  0x0044e8                  _Timekeeper_Init
                  0x004566                  _Timekeeper_SetDate
                  0x004520                  _Timekeeper_SetTime
                  0x0055bc                  _Timer1_Init
                  0x005602                  _Timer2_Init
                  0x005648                  _Timer_GetTicks
                  0x005368                  _WatchFace_DrawAlarmIcon
                  0x0053ac                  _WatchFace_DrawDate
                  0x0056e4                  _Watch_GetState
                  0x0056ec                  _Watch_InitState
                  0x0002fa                  __DefaultInterrupt
                  0x02af00                  __FSEC.sec
                  0x0002ca                  __T1Interrupt
                  0x0002e2                  __T2Interrupt
                  0x000954                  ___cvt_u
                  0x00595e                  ___delay32
                  0x001384                  ___divdi3
                  0x00032a                  ___divsf3
                  0x00032a                  ___divsf3x
                  0x0011c8                  ___extendsfdf2
                  0x000628                  ___floatundisf
                  0x000300                  ___floatunsisf
                  0x0007e4                  ___fmt_d
                  0x000896                  ___fmt_o
                  0x000900                  ___fmt_s
                  0x000d56                  ___fmt_state
                  0x0009fa                  ___fmt_u
                  0x000a4c                  ___fmt_x
                  0x0013e4                  ___moddi3
                  0x001230                  ___mulp32eds3
                  0x001230                  ___mulp32peds3
                  0x001230                  ___mulsi3
                  0x000cdc                  ___pad
                  0x00116e                  ___pop_float
                  0x000b9e                  ___pop_int
                  0x000c46                  ___pop_ptr
                  0x00105a                  ___printf_core
                  0x0006de                  ___sio_sprintf_doux
                  0x001114                  ___tolower_l
                  0x001122                  ___toupper_l
                  0x00136e                  ___udivdi3
                  0x001288                  ___udivmoddi3
                  0x000304                  ___udivsi3
                  0x00137c                  ___umoddi3
                  0x000324                  ___umodsi3
                  0x0011ac                  ___vfprintf
                  0x001124                  ___vsnprintf
                  0x000b96                  ___vsprintf
                  0x000152                  __data_init
                  0x000152                  __data_init_da
                  0x000686                  __fpack
                  0x001206                  __funpack
                  0x00013c                  __psv_init
                  0x000100                  __resetPRI
                  0x0004bc                  __sdivf
                  0x00051c                  __spackf
                  0x0004e8                  __typef
                  0x0005c2                  __unpackf
                  0x0010ae                  _atoi
                  0x0034de                  _i2c_init
                  0x0037be                  _i2c_readReg
                  0x003734                  _i2c_readRegs
                  0x0036ee                  _i2c_writeReg
                  0x00471a                  _initShapesMem
                  0x005996                  _main
                  0x00174c                  _main_menu
                  0x0010fa                  _memcpy
                  0x0006ec                  _memset
                  0x00210e                  _oledC_DrawBitmap
                  0x00200a                  _oledC_DrawCharacter
                  0x001c9c                  _oledC_DrawCircle
                  0x001eaa                  _oledC_DrawLine
                  0x001b5c                  _oledC_DrawPoint
                  0x001fbc                  _oledC_DrawRectangle
                  0x001dae                  _oledC_DrawRing
                  0x0020c8                  _oledC_DrawString
                  0x001b94                  _oledC_DrawThickPoint
                  0x001b2c                  _oledC_ReadPoint
                  0x004798                  _oledC_addShape
                  0x003a64                  _oledC_clearScreen
                  0x0019fc                  _oledC_createShape
                  0x0048a2                  _oledC_eraseAll
                  0x004878                  _oledC_eraseShape
                  0x003aac                  _oledC_getBackground
                  0x00477c                  _oledC_getShape
                  0x003a1a                  _oledC_open
                  0x003870                  _oledC_parseIntToRGB
                  0x0038be                  _oledC_parseRGBToInt
                  0x0039c0                  _oledC_readColor
                  0x0048ce                  _oledC_redrawAll
                  0x00481e                  _oledC_redrawFrom
                  0x0047f2                  _oledC_redrawIndex
                  0x00482c                  _oledC_redrawSome
                  0x004810                  _oledC_redrawTo
                  0x004746                  _oledC_removeShape
                  0x0039de                  _oledC_sendColor
                  0x0039f4                  _oledC_sendColorInt
                  0x003908                  _oledC_sendCommand
                  0x003a9e                  _oledC_setBackground
                  0x003970                  _oledC_setColumnAddressBounds
                  0x003946                  _oledC_setRowAddressBounds
                  0x0039a6                  _oledC_setSleepMode
                  0x003a22                  _oledC_setup
                  0x00514a                  _spi1_close
                  0x00518c                  _spi1_exchangeBlock
                  0x005172                  _spi1_exchangeByte
                  0x005232                  _spi1_isr
                  0x005152                  _spi1_open
                  0x0051ec                  _spi1_readBlock
                  0x005228                  _spi1_readByte
                  0x00524e                  _spi1_setSpiISR
                  0x0051be                  _spi1_writeBlock
                  0x00521c                  _spi1_writeByte
                  0x0007b4                  _strlen
                  0x002882                  _test_custom_colors
                  0x00241c                  _test_discrete_leds
                  0x002952                  _test_intensity_persistence
                  0x0028fa                  _test_rainbow_sequence
                  0x00264e                  _test_raw_vs_scaled
                  0x0024f2                  _test_rgb_color_constants
                  0x002762                  _test_rgb_color_wheel
                  0x002828                  _test_rgb_edge_cases
                  0x00269e                  _test_rgb_intensity_fade
                  0x002594                  _test_rgb_intensity_scaling
                  0x002498                  _test_rgb_raw_pwm
                  0x001108                  _tolower
                  0x001116                  _toupper
                  0x00591e                  _watch_main
                  0x00597a                  _where_was_i
                  0x004712                  build/default/production/oledDriver/oledC_shapeHandler.o:_dummyshape
                  0x0022b4                  build/default/production/oledDriver/oledC_shapes.o:_drawBitmap
                  0x002270                  build/default/production/oledDriver/oledC_shapes.o:_drawCharacter
                  0x0021f8                  build/default/production/oledDriver/oledC_shapes.o:_drawCircle
                  0x00224e                  build/default/production/oledDriver/oledC_shapes.o:_drawLine
                  0x0021e2                  build/default/production/oledDriver/oledC_shapes.o:_drawPoint
                  0x002230                  build/default/production/oledDriver/oledC_shapes.o:_drawRectangle
                  0x002212                  build/default/production/oledDriver/oledC_shapes.o:_drawRing
                  0x002292                  build/default/production/oledDriver/oledC_shapes.o:_drawString

Memory Configuration

Name             Origin             Length             Attributes
data             0x000800           0x004000           a !xr
reset            0x000000           0x000004  
ivt              0x000004           0x0000fc  
program          0x000100           0x02ae00           xr
FSEC             0x02af00           0x000002  
FBSLIM           0x02af10           0x000002  
FSIGN            0x02af14           0x000002  
FOSCSEL          0x02af18           0x000002  
FOSC             0x02af1c           0x000002  
FWDT             0x02af20           0x000002  
FPOR             0x02af24           0x000002  
FICD             0x02af28           0x000002  
FDEVOPT1         0x02af2c           0x000002  
*default*        0x000000           0xffffffff  

Linker script and memory map

LOAD build/default/production/accel3Driver/ACCEL3.o
LOAD build/default/production/adcDriver/ADC.o
LOAD build/default/production/i2cDriver/I2C.o
LOAD build/default/production/ledDriver/LED_tests.o
LOAD build/default/production/oledDriver/oledC.o
LOAD build/default/production/oledDriver/oledC_shapeHandler.o
LOAD build/default/production/oledDriver/oledC_shapes.o
LOAD build/default/production/spiDriver/spi1_driver.o
LOAD build/default/production/switchDriver/Switch.o
LOAD build/default/production/System/clock.o
LOAD build/default/production/System/delay.o
LOAD build/default/production/System/interrupt_manager.o
LOAD build/default/production/System/pin_manager.o
LOAD build/default/production/System/system.o
LOAD build/default/production/System/traps.o
LOAD build/default/production/System/where_was_i.o
LOAD build/default/production/WatchApp/pomodoroTimer/pomodoro.o
LOAD build/default/production/WatchApp/shared/watch_state.o
LOAD build/default/production/WatchApp/watchCore/alarm.o
LOAD build/default/production/WatchApp/watchCore/timekeeper.o
LOAD build/default/production/WatchApp/watchFaces/analog_face.o
LOAD build/default/production/WatchApp/watchFaces/binary_face.o
LOAD build/default/production/WatchApp/watchFaces/digital_face.o
LOAD build/default/production/WatchApp/watchInput/accel_input.o
LOAD build/default/production/WatchApp/watchInput/buttons.o
LOAD build/default/production/WatchApp/watchInput/potentiometer.o
LOAD build/default/production/WatchApp/watchMenu/menu.o
LOAD build/default/production/Timers/Timers.o
LOAD build/default/production/WatchApp/app_init.o
LOAD build/default/production/WatchApp/watchManagers/app_display_manager.o
LOAD build/default/production/WatchApp/watchManagers/app_input_handler.o
LOAD build/default/production/WatchApp/watchManagers/app_time_manager.o
LOAD build/default/production/main.o
LOAD build/default/production/WatchApp/watch_main.o
LOAD build/default/production/WatchApp/watchFaces/alarm_face.o
LOAD build/default/production/WatchApp/watchFaces/watch_face_common.o
LOAD build/default/production/WatchApp/watchFaces/watch_face_geometry.o
                    0x0001                  __MPLAB_BUILD = 0x1
LOAD pPIC24Fxxx
LOAD c:/program files/microchip/xc16/v2.10/bin/bin/../../lib\libfx-elf.a
                    0x2af00                  __FSEC = 0x2af00
                    0x2af10                  __FBSLIM = 0x2af10
                    0x2af14                  __FSIGN = 0x2af14
                    0x2af18                  __FOSCSEL = 0x2af18
                    0x2af1c                  __FOSC = 0x2af1c
                    0x2af20                  __FWDT = 0x2af20
                    0x2af24                  __FPOR = 0x2af24
                    0x2af28                  __FICD = 0x2af28
                    0x2af2c                  __FDEVOPT1 = 0x2af2c
                    0x0100                  __CODE_BASE = 0x100
                    0x2ae00                  __CODE_LENGTH = 0x2ae00
                    0x0004                  __IVT_BASE = 0x4
                    0x0800                  __DATA_BASE = 0x800
                    0x4000                  __DATA_LENGTH = 0x4000

.reset            0x000000          0x4
                  0x000000          0x2 SHORT 0x100 ABSOLUTE (__reset)
                  0x000001          0x2 SHORT 0x4
                  0x000002          0x2 SHORT 0x0 ((ABSOLUTE (__reset) >> 0x10) & 0x7f)
                  0x000003          0x2 SHORT 0x0

.text             0x000100       0x1340
 *(.init)
 .init            0x000100         0x4c c:/program files/microchip/xc16/v2.10/bin/bin/../../lib\libc99-pic30-elf.a(crt0_extended24.o)
                  0x000100                  __resetPRI
                  0x000100                  __reset
                  0x00013c                  __psv_init
 .init            0x00014c         0xb8 c:/program files/microchip/xc16/v2.10/bin/bin/../../lib\libc99-pic30-elf.a(data_init_24.o)
                  0x000152                  __data_init
                  0x000152                  __data_init_da
 *(.user_init)
 *(.handle)
 .handle          0x000204         0x24 jump_table
 *(.isr*)
 .isr.text        0x000228         0xa2 build/default/production/System/traps.o
                  0x000228                  __OscillatorFail
                  0x000248                  __StackError
                  0x00026a                  __AddressError
                  0x00028a                  __MathError
                  0x0002aa                  __NVMError
 .isr.text        0x0002ca         0x30 build/default/production/Timers/Timers.o
                  0x0002ca                  __T1Interrupt
                  0x0002e2                  __T2Interrupt
 .isr             0x0002fa          0x4 default_isr
                  0x0002fa                  __DefaultInterrupt
 *(.libc)
 *(.libm)
 *(.libdsp)
 *(.lib*)
 .libpic30_crt_start_mode
                  0x0002fe          0x2 c:/program files/microchip/xc16/v2.10/bin/bin/../../lib\libc99-pic30-elf.a(crt_start_mode_normalda.Meo)
                  0x0002fe                  __crt_start_mode
                  0x0002fe                  __crt_start_mode_normal
 .libm.floatunsisf
                  0x000300          0x4 c:/program files/microchip/xc16/v2.10/bin/bin/../../lib\libc99-pic30-elf.a(floatunsisf.DA_o)
                  0x000300                  ___floatunsisf
 .libm.udivsi3    0x000304         0x20 c:/program files/microchip/xc16/v2.10/bin/bin/../../lib\libc99-pic30-elf.a(udivsi3.DA_o)
                  0x000304                  ___udivsi3
 .libm.umodsi3    0x000324          0x6 c:/program files/microchip/xc16/v2.10/bin/bin/../../lib\libc99-pic30-elf.a(umodsi3.DA_o)
                  0x000324                  ___umodsi3
 .libmx           0x00032a        0x1be c:/program files/microchip/xc16/v2.10/bin/bin/../../lib\libc99-pic30-elf.a(divsf3x.DA_o)
                  0x00032a                  ___divsf3x
                  0x00032a                  ___divsf3
                  0x0004bc                  __sdivf
 .libmx           0x0004e8         0x34 c:/program files/microchip/xc16/v2.10/bin/bin/../../lib\libc99-pic30-elf.a(typefx.DA_o)
                  0x0004e8                  __typef
 .libmx           0x00051c         0xa6 c:/program files/microchip/xc16/v2.10/bin/bin/../../lib\libc99-pic30-elf.a(spackfx.DA_o)
                  0x00051c                  __spackf
 .libmx           0x0005c2         0x66 c:/program files/microchip/xc16/v2.10/bin/bin/../../lib\libc99-pic30-elf.a(unpackfx.DA_o)
                  0x0005c2                  __unpackf
 .libm.floatundisf
                  0x000628         0x5e c:/program files/microchip/xc16/v2.10/bin/bin/../../lib\libc99-pic30-elf.a(floatundisf.DA_o)
                  0x000628                  ___floatundisf
 .libm.fpack      0x000686         0x4c c:/program files/microchip/xc16/v2.10/bin/bin/../../lib\libc99-pic30-elf.a(fpack.DA_o)
                  0x000686                  __fpack
 .libc.__wrap_sprintf
                  0x0006d2          0xc c:/program files/microchip/xc16/v2.10/bin/bin/../../lib\libc99-elf.a(__sio_sprintf_doux.DA_o)
                  0x0006d2                  __sprintf_cdnopuxX
                  0x0006d2                  __dsprintf_cdnopuxX
 .libc.__sio_sprintf_doux
                  0x0006de          0xe c:/program files/microchip/xc16/v2.10/bin/bin/../../lib\libc99-elf.a(__sio_sprintf_doux.DA_o)
                  0x0006de                  ___sio_sprintf_doux
 .libc.memset     0x0006ec         0xc8 c:/program files/microchip/xc16/v2.10/bin/bin/../../lib\libc99-elf.a(memset.DA_o)
                  0x0006ec                  _memset
 .libc.strlen     0x0007b4         0x30 c:/program files/microchip/xc16/v2.10/bin/bin/../../lib\libc99-elf.a(strlen.DA_o)
                  0x0007b4                  _strlen
 .libc.__fmt_d    0x0007e4         0xb2 c:/program files/microchip/xc16/v2.10/bin/bin/../../lib\libc99-elf.a(__fmt_d.DA_o)
                  0x0007e4                  ___fmt_d
                  0x0007e4                  ___fmt_d_needed
 .libc.__fmt_o    0x000896         0x6a c:/program files/microchip/xc16/v2.10/bin/bin/../../lib\libc99-elf.a(__fmt_o.DA_o)
                  0x000896                  ___fmt_o
                  0x000896                  ___fmt_o_needed
 .libc.__fmt_s    0x000900         0x54 c:/program files/microchip/xc16/v2.10/bin/bin/../../lib\libc99-elf.a(__fmt_s.DA_o)
                  0x000900                  ___fmt_0_needed
                  0x000900                  ___fmt_s_needed
                  0x000900                  ___fmt_s
 .libc.__cvt_u    0x000954         0xa6 c:/program files/microchip/xc16/v2.10/bin/bin/../../lib\libc99-elf.a(__fmt_u.DA_o)
                  0x000954                  ___cvt_u
 .libc.__fmt_u    0x0009fa         0x52 c:/program files/microchip/xc16/v2.10/bin/bin/../../lib\libc99-elf.a(__fmt_u.DA_o)
                  0x0009fa                  ___fmt_u
                  0x0009fa                  ___fmt_u_needed
 .libc.__fmt_x    0x000a4c        0x14a c:/program files/microchip/xc16/v2.10/bin/bin/../../lib\libc99-elf.a(__fmt_x.DA_o)
                  0x000a4c                  ___fmt_x_needed
                  0x000a4c                  ___fmt_x
 .libc.__vsprintf
                  0x000b96          0x8 c:/program files/microchip/xc16/v2.10/bin/bin/../../lib\libc99-elf.a(__int_vsprintf.DA_o)
                  0x000b96                  ___vsprintf
 .libc.__pop_int
                  0x000b9e         0xa8 c:/program files/microchip/xc16/v2.10/bin/bin/../../lib\libc99-elf.a(__pop_int.DA_o)
                  0x000b9e                  ___pop_int
                  0x000b9e                  ___pop_int_needed
 .libc.__pop_ptr
                  0x000c46         0x70 c:/program files/microchip/xc16/v2.10/bin/bin/../../lib\libc99-elf.a(__pop_ptr.DA_o)
                  0x000c46                  ___pop_ptr_needed
                  0x000c46                  ___pop_ptr
 .libc.__string_out
                  0x000cb6         0x26 c:/program files/microchip/xc16/v2.10/bin/bin/../../lib\libc99-elf.a(__printf_core.DA_o)
                  0x000cb6                  ___out
 .libc.__pad      0x000cdc         0x74 c:/program files/microchip/xc16/v2.10/bin/bin/../../lib\libc99-elf.a(__printf_core.DA_o)
                  0x000cdc                  ___pad
 .libc.__dummy_fmt3
                  0x000d50          0x2 c:/program files/microchip/xc16/v2.10/bin/bin/../../lib\libc99-elf.a(__printf_core.DA_o)
 .libc.__dummy_fmt4
                  0x000d52          0x2 c:/program files/microchip/xc16/v2.10/bin/bin/../../lib\libc99-elf.a(__printf_core.DA_o)
                  0x000d52                  ___fmt_fp
                  0x000d52                  ___fmt_a
 .libc.__dummy_fmts
                  0x000d54          0x2 c:/program files/microchip/xc16/v2.10/bin/bin/../../lib\libc99-elf.a(__printf_core.DA_o)
 .libc.__fmt_state
                  0x000d56         0x2c c:/program files/microchip/xc16/v2.10/bin/bin/../../lib\libc99-elf.a(__printf_core.DA_o)
                  0x000d56                  ___fmt_state
 .libc.vfpfcnvrt.clone.0
                  0x000d82        0x2d8 c:/program files/microchip/xc16/v2.10/bin/bin/../../lib\libc99-elf.a(__printf_core.DA_o)
 .libc.__printf_core
                  0x00105a         0x40 c:/program files/microchip/xc16/v2.10/bin/bin/../../lib\libc99-elf.a(__printf_core.DA_o)
                  0x00105a                  ___printf_core
 .libc.__isspace
                  0x00109a         0x14 c:/program files/microchip/xc16/v2.10/bin/bin/../../lib\libc99-elf.a(atoi.DA_o)
 .libc.atoi       0x0010ae         0x4c c:/program files/microchip/xc16/v2.10/bin/bin/../../lib\libc99-elf.a(atoi.DA_o)
                  0x0010ae                  _atoi
 .libc.memcpy     0x0010fa          0xe c:/program files/microchip/xc16/v2.10/bin/bin/../../lib\libc99-elf.a(memcpy.DA_o)
                  0x0010fa                  _memcpy
 .libc.tolower    0x001108          0xc c:/program files/microchip/xc16/v2.10/bin/bin/../../lib\libc99-elf.a(tolower.DA_o)
                  0x001108                  _tolower
 .libc.__tolower_l
                  0x001114          0x2 c:/program files/microchip/xc16/v2.10/bin/bin/../../lib\libc99-elf.a(tolower.DA_o)
                  0x001114                  ___tolower_l
                  0x001114                  _tolower_l
 .libc.toupper    0x001116          0xc c:/program files/microchip/xc16/v2.10/bin/bin/../../lib\libc99-elf.a(toupper.DA_o)
                  0x001116                  _toupper
 .libc.__toupper_l
                  0x001122          0x2 c:/program files/microchip/xc16/v2.10/bin/bin/../../lib\libc99-elf.a(toupper.DA_o)
                  0x001122                  ___toupper_l
                  0x001122                  _toupper_l
 .libc.__vsnprintf
                  0x001124         0x4a c:/program files/microchip/xc16/v2.10/bin/bin/../../lib\libc99-elf.a(__int_vsnprintf.DA_o)
                  0x001124                  ___vsnprintf
 .libc.__pop_float
                  0x00116e         0x3e c:/program files/microchip/xc16/v2.10/bin/bin/../../lib\libc99-elf.a(__pop_float.DA_o)
                  0x00116e                  ___pop_float
                  0x00116e                  ___pop_float_needed
 .libc.__vfprintf
                  0x0011ac         0x1c c:/program files/microchip/xc16/v2.10/bin/bin/../../lib\libc99-elf.a(__int_vfprintf.DA_o)
                  0x0011ac                  ___vfprintf
 .libm.extendsfdf2
                  0x0011c8         0x3e c:/program files/microchip/xc16/v2.10/bin/bin/../../lib\libc99-pic30-elf.a(extendsfdf.DA_o)
                  0x0011c8                  ___extendsfdf2
 .libm.funpack    0x001206         0x2a c:/program files/microchip/xc16/v2.10/bin/bin/../../lib\libc99-pic30-elf.a(funpack.DA_o)
                  0x001206                  __funpack
 .libm.mulsi3     0x001230          0xc c:/program files/microchip/xc16/v2.10/bin/bin/../../lib\libc99-pic30-elf.a(mulsi3.DA_o)
                  0x001230                  ___mulp32peds3
                  0x001230                  ___mulsi3
                  0x001230                  ___mulp32eds3
 .libm.__PplusBdi
                  0x00123c         0x26 c:/program files/microchip/xc16/v2.10/bin/bin/../../lib\libc99-pic30-elf.a(divmoddi3.DA_o)
 .libm.__PminusBdi
                  0x001262         0x26 c:/program files/microchip/xc16/v2.10/bin/bin/../../lib\libc99-pic30-elf.a(divmoddi3.DA_o)
 .libm.__udivmoddi3
                  0x001288         0xe6 c:/program files/microchip/xc16/v2.10/bin/bin/../../lib\libc99-pic30-elf.a(divmoddi3.DA_o)
                  0x001288                  ___udivmoddi3
 .libm.__udivdi3
                  0x00136e          0xe c:/program files/microchip/xc16/v2.10/bin/bin/../../lib\libc99-pic30-elf.a(divmoddi3.DA_o)
                  0x00136e                  ___udivdi3
 .libm.__umoddi3
                  0x00137c          0x8 c:/program files/microchip/xc16/v2.10/bin/bin/../../lib\libc99-pic30-elf.a(divmoddi3.DA_o)
                  0x00137c                  ___umoddi3
 .libm.__divdi3
                  0x001384         0x60 c:/program files/microchip/xc16/v2.10/bin/bin/../../lib\libc99-pic30-elf.a(divmoddi3.DA_o)
                  0x001384                  ___divdi3
 .libm.__moddi3
                  0x0013e4         0x5c c:/program files/microchip/xc16/v2.10/bin/bin/../../lib\libc99-pic30-elf.a(divmoddi3.DA_o)
                  0x0013e4                  ___moddi3

usercode
 *(usercode)

__FSEC            0x02af00          0x2
 *(__FSEC.sec*)
 __FSEC.sec       0x02af00          0x2 /CW/_FSEC
                  0x02af00                  __FSEC.sec

__FBSLIM
 *(__FBSLIM.sec*)

__FSIGN
 *(__FSIGN.sec*)

__FOSCSEL
 *(__FOSCSEL.sec*)

__FOSC
 *(__FOSC.sec*)

__FWDT
 *(__FWDT.sec*)

__FPOR
 *(__FPOR.sec*)

__FICD
 *(__FICD.sec*)

__FDEVOPT1
 *(__FDEVOPT1.sec*)

.comment
 *(.comment)

.debug_info       0x000000      0x11702
 *(.debug_info)
 .debug_info      0x000000        0x357 build/default/production/accel3Driver/ACCEL3.o
 .debug_info      0x000357        0xb5d build/default/production/adcDriver/ADC.o
 .debug_info      0x000eb4        0x8b8 build/default/production/i2cDriver/I2C.o
 .debug_info      0x00176c       0x15c5 build/default/production/ledDriver/LED_tests.o
 .debug_info      0x002d31       0x1127 build/default/production/oledDriver/oledC.o
 .debug_info      0x003e58        0x902 build/default/production/oledDriver/oledC_shapeHandler.o
 .debug_info      0x00475a        0xf2a build/default/production/oledDriver/oledC_shapes.o
 .debug_info      0x005684        0xa1d build/default/production/spiDriver/spi1_driver.o
 .debug_info      0x0060a1        0x398 build/default/production/switchDriver/Switch.o
 .debug_info      0x006439        0x364 build/default/production/System/clock.o
 .debug_info      0x00679d        0x1c8 build/default/production/System/delay.o
 .debug_info      0x006965        0x5f2 build/default/production/System/interrupt_manager.o
 .debug_info      0x006f57        0x5e3 build/default/production/System/pin_manager.o
 .debug_info      0x00753a        0x326 build/default/production/System/system.o
 .debug_info      0x007860        0x431 build/default/production/System/traps.o
 .debug_info      0x007c91         0x91 build/default/production/System/where_was_i.o
 .debug_info      0x007d22        0xa24 build/default/production/WatchApp/pomodoroTimer/pomodoro.o
 .debug_info      0x008746        0x6f7 build/default/production/WatchApp/shared/watch_state.o
 .debug_info      0x008e3d        0x844 build/default/production/WatchApp/watchCore/alarm.o
 .debug_info      0x009681        0x9ee build/default/production/WatchApp/watchCore/timekeeper.o
 .debug_info      0x00a06f        0x8db build/default/production/WatchApp/watchFaces/analog_face.o
 .debug_info      0x00a94a        0xaa6 build/default/production/WatchApp/watchFaces/binary_face.o
 .debug_info      0x00b3f0        0x9fc build/default/production/WatchApp/watchFaces/digital_face.o
 .debug_info      0x00bdec        0x385 build/default/production/WatchApp/watchInput/accel_input.o
 .debug_info      0x00c171        0x35b build/default/production/WatchApp/watchInput/buttons.o
 .debug_info      0x00c4cc        0x4cb build/default/production/WatchApp/watchInput/potentiometer.o
 .debug_info      0x00c997        0xf06 build/default/production/WatchApp/watchMenu/menu.o
 .debug_info      0x00d89d        0xd7d build/default/production/Timers/Timers.o
 .debug_info      0x00e61a        0x2d2 build/default/production/WatchApp/app_init.o
 .debug_info      0x00e8ec        0x741 build/default/production/WatchApp/watchManagers/app_display_manager.o
 .debug_info      0x00f02d        0x94c build/default/production/WatchApp/watchManagers/app_input_handler.o
 .debug_info      0x00f979        0x72c build/default/production/WatchApp/watchManagers/app_time_manager.o
 .debug_info      0x0100a5         0xaf build/default/production/main.o
 .debug_info      0x010154        0x2d4 build/default/production/WatchApp/watch_main.o
 .debug_info      0x010428        0x741 build/default/production/WatchApp/watchFaces/alarm_face.o
 .debug_info      0x010b69        0x2f1 build/default/production/WatchApp/watchFaces/watch_face_common.o
 .debug_info      0x010e5a        0x1c4 build/default/production/WatchApp/watchFaces/watch_face_geometry.o
 .debug_info      0x01101e         0x91 c:/program files/microchip/xc16/v2.10/bin/bin/../../lib\libc99-pic30-elf.a(floatunsisf.DA_o)
 .debug_info      0x0110af         0x8d c:/program files/microchip/xc16/v2.10/bin/bin/../../lib\libc99-pic30-elf.a(udivsi3.DA_o)
 .debug_info      0x01113c         0x8d c:/program files/microchip/xc16/v2.10/bin/bin/../../lib\libc99-pic30-elf.a(umodsi3.DA_o)
 .debug_info      0x0111c9         0x9d c:/program files/microchip/xc16/v2.10/bin/bin/../../lib\libc99-pic30-elf.a(divsf3x.DA_o)
 .debug_info      0x011266         0x9c c:/program files/microchip/xc16/v2.10/bin/bin/../../lib\libc99-pic30-elf.a(typefx.DA_o)
 .debug_info      0x011302         0x9d c:/program files/microchip/xc16/v2.10/bin/bin/../../lib\libc99-pic30-elf.a(spackfx.DA_o)
 .debug_info      0x01139f         0x9e c:/program files/microchip/xc16/v2.10/bin/bin/../../lib\libc99-pic30-elf.a(unpackfx.DA_o)
 .debug_info      0x01143d         0x91 c:/program files/microchip/xc16/v2.10/bin/bin/../../lib\libc99-pic30-elf.a(floatundisf.DA_o)
 .debug_info      0x0114ce         0x8b c:/program files/microchip/xc16/v2.10/bin/bin/../../lib\libc99-pic30-elf.a(fpack.DA_o)
 .debug_info      0x011559         0x90 c:/program files/microchip/xc16/v2.10/bin/bin/../../lib\libc99-pic30-elf.a(extendsfdf.DA_o)
 .debug_info      0x0115e9         0x8d c:/program files/microchip/xc16/v2.10/bin/bin/../../lib\libc99-pic30-elf.a(funpack.DA_o)
 .debug_info      0x011676         0x8c c:/program files/microchip/xc16/v2.10/bin/bin/../../lib\libc99-pic30-elf.a(mulsi3.DA_o)
 *(.gnu.linkonce.wi.*)

.debug_abbrev     0x000000       0x2316
 *(.debug_abbrev)
 .debug_abbrev    0x000000         0xb7 build/default/production/accel3Driver/ACCEL3.o
 .debug_abbrev    0x0000b7        0x19f build/default/production/adcDriver/ADC.o
 .debug_abbrev    0x000256        0x184 build/default/production/i2cDriver/I2C.o
 .debug_abbrev    0x0003da        0x1ce build/default/production/ledDriver/LED_tests.o
 .debug_abbrev    0x0005a8        0x1aa build/default/production/oledDriver/oledC.o
 .debug_abbrev    0x000752        0x166 build/default/production/oledDriver/oledC_shapeHandler.o
 .debug_abbrev    0x0008b8        0x1bc build/default/production/oledDriver/oledC_shapes.o
 .debug_abbrev    0x000a74        0x1cf build/default/production/spiDriver/spi1_driver.o
 .debug_abbrev    0x000c43         0xff build/default/production/switchDriver/Switch.o
 .debug_abbrev    0x000d42         0x6a build/default/production/System/clock.o
 .debug_abbrev    0x000dac         0x67 build/default/production/System/delay.o
 .debug_abbrev    0x000e13         0xc7 build/default/production/System/interrupt_manager.o
 .debug_abbrev    0x000eda         0x9b build/default/production/System/pin_manager.o
 .debug_abbrev    0x000f75         0xb4 build/default/production/System/system.o
 .debug_abbrev    0x001029        0x100 build/default/production/System/traps.o
 .debug_abbrev    0x001129         0x14 build/default/production/System/where_was_i.o
 .debug_abbrev    0x00113d        0x11b build/default/production/WatchApp/pomodoroTimer/pomodoro.o
 .debug_abbrev    0x001258         0xa2 build/default/production/WatchApp/shared/watch_state.o
 .debug_abbrev    0x0012fa         0xfd build/default/production/WatchApp/watchCore/alarm.o
 .debug_abbrev    0x0013f7        0x103 build/default/production/WatchApp/watchCore/timekeeper.o
 .debug_abbrev    0x0014fa         0xf9 build/default/production/WatchApp/watchFaces/analog_face.o
 .debug_abbrev    0x0015f3        0x10a build/default/production/WatchApp/watchFaces/binary_face.o
 .debug_abbrev    0x0016fd         0xf0 build/default/production/WatchApp/watchFaces/digital_face.o
 .debug_abbrev    0x0017ed         0xae build/default/production/WatchApp/watchInput/accel_input.o
 .debug_abbrev    0x00189b         0xeb build/default/production/WatchApp/watchInput/buttons.o
 .debug_abbrev    0x001986         0xb5 build/default/production/WatchApp/watchInput/potentiometer.o
 .debug_abbrev    0x001a3b        0x14e build/default/production/WatchApp/watchMenu/menu.o
 .debug_abbrev    0x001b89        0x168 build/default/production/Timers/Timers.o
 .debug_abbrev    0x001cf1         0x86 build/default/production/WatchApp/app_init.o
 .debug_abbrev    0x001d77         0xbe build/default/production/WatchApp/watchManagers/app_display_manager.o
 .debug_abbrev    0x001e35         0xf6 build/default/production/WatchApp/watchManagers/app_input_handler.o
 .debug_abbrev    0x001f2b         0x9c build/default/production/WatchApp/watchManagers/app_time_manager.o
 .debug_abbrev    0x001fc7         0x36 build/default/production/main.o
 .debug_abbrev    0x001ffd         0x8b build/default/production/WatchApp/watch_main.o
 .debug_abbrev    0x002088         0xa2 build/default/production/WatchApp/watchFaces/alarm_face.o
 .debug_abbrev    0x00212a         0xa6 build/default/production/WatchApp/watchFaces/watch_face_common.o
 .debug_abbrev    0x0021d0         0x56 build/default/production/WatchApp/watchFaces/watch_face_geometry.o
 .debug_abbrev    0x002226         0x14 c:/program files/microchip/xc16/v2.10/bin/bin/../../lib\libc99-pic30-elf.a(floatunsisf.DA_o)
 .debug_abbrev    0x00223a         0x14 c:/program files/microchip/xc16/v2.10/bin/bin/../../lib\libc99-pic30-elf.a(udivsi3.DA_o)
 .debug_abbrev    0x00224e         0x14 c:/program files/microchip/xc16/v2.10/bin/bin/../../lib\libc99-pic30-elf.a(umodsi3.DA_o)
 .debug_abbrev    0x002262         0x14 c:/program files/microchip/xc16/v2.10/bin/bin/../../lib\libc99-pic30-elf.a(divsf3x.DA_o)
 .debug_abbrev    0x002276         0x14 c:/program files/microchip/xc16/v2.10/bin/bin/../../lib\libc99-pic30-elf.a(typefx.DA_o)
 .debug_abbrev    0x00228a         0x14 c:/program files/microchip/xc16/v2.10/bin/bin/../../lib\libc99-pic30-elf.a(spackfx.DA_o)
 .debug_abbrev    0x00229e         0x14 c:/program files/microchip/xc16/v2.10/bin/bin/../../lib\libc99-pic30-elf.a(unpackfx.DA_o)
 .debug_abbrev    0x0022b2         0x14 c:/program files/microchip/xc16/v2.10/bin/bin/../../lib\libc99-pic30-elf.a(floatundisf.DA_o)
 .debug_abbrev    0x0022c6         0x14 c:/program files/microchip/xc16/v2.10/bin/bin/../../lib\libc99-pic30-elf.a(fpack.DA_o)
 .debug_abbrev    0x0022da         0x14 c:/program files/microchip/xc16/v2.10/bin/bin/../../lib\libc99-pic30-elf.a(extendsfdf.DA_o)
 .debug_abbrev    0x0022ee         0x14 c:/program files/microchip/xc16/v2.10/bin/bin/../../lib\libc99-pic30-elf.a(funpack.DA_o)
 .debug_abbrev    0x002302         0x14 c:/program files/microchip/xc16/v2.10/bin/bin/../../lib\libc99-pic30-elf.a(mulsi3.DA_o)

.debug_line       0x000000       0x3054
 *(.debug_line)
 .debug_line      0x000000         0xd5 build/default/production/accel3Driver/ACCEL3.o
 .debug_line      0x0000d5        0x17b build/default/production/adcDriver/ADC.o
 .debug_line      0x000250        0x179 build/default/production/i2cDriver/I2C.o
 .debug_line      0x0003c9        0x24e build/default/production/ledDriver/LED_tests.o
 .debug_line      0x000617        0x1a9 build/default/production/oledDriver/oledC.o
 .debug_line      0x0007c0         0xea build/default/production/oledDriver/oledC_shapeHandler.o
 .debug_line      0x0008aa        0x207 build/default/production/oledDriver/oledC_shapes.o
 .debug_line      0x000ab1        0x14b build/default/production/spiDriver/spi1_driver.o
 .debug_line      0x000bfc        0x14d build/default/production/switchDriver/Switch.o
 .debug_line      0x000d49        0x11e build/default/production/System/clock.o
 .debug_line      0x000e67         0x99 build/default/production/System/delay.o
 .debug_line      0x000f00        0x13a build/default/production/System/interrupt_manager.o
 .debug_line      0x00103a        0x128 build/default/production/System/pin_manager.o
 .debug_line      0x001162        0x111 build/default/production/System/system.o
 .debug_line      0x001273        0x144 build/default/production/System/traps.o
 .debug_line      0x0013b7         0x48 build/default/production/System/where_was_i.o
 .debug_line      0x0013ff        0x157 build/default/production/WatchApp/pomodoroTimer/pomodoro.o
 .debug_line      0x001556         0xd0 build/default/production/WatchApp/shared/watch_state.o
 .debug_line      0x001626        0x115 build/default/production/WatchApp/watchCore/alarm.o
 .debug_line      0x00173b        0x120 build/default/production/WatchApp/watchCore/timekeeper.o
 .debug_line      0x00185b        0x136 build/default/production/WatchApp/watchFaces/analog_face.o
 .debug_line      0x001991        0x13d build/default/production/WatchApp/watchFaces/binary_face.o
 .debug_line      0x001ace        0x131 build/default/production/WatchApp/watchFaces/digital_face.o
 .debug_line      0x001bff         0xff build/default/production/WatchApp/watchInput/accel_input.o
 .debug_line      0x001cfe        0x16d build/default/production/WatchApp/watchInput/buttons.o
 .debug_line      0x001e6b         0xf9 build/default/production/WatchApp/watchInput/potentiometer.o
 .debug_line      0x001f64        0x1d6 build/default/production/WatchApp/watchMenu/menu.o
 .debug_line      0x00213a        0x13c build/default/production/Timers/Timers.o
 .debug_line      0x002276        0x145 build/default/production/WatchApp/app_init.o
 .debug_line      0x0023bb        0x11b build/default/production/WatchApp/watchManagers/app_display_manager.o
 .debug_line      0x0024d6        0x1b4 build/default/production/WatchApp/watchManagers/app_input_handler.o
 .debug_line      0x00268a         0xf0 build/default/production/WatchApp/watchManagers/app_time_manager.o
 .debug_line      0x00277a         0x33 build/default/production/main.o
 .debug_line      0x0027ad        0x13c build/default/production/WatchApp/watch_main.o
 .debug_line      0x0028e9         0xec build/default/production/WatchApp/watchFaces/alarm_face.o
 .debug_line      0x0029d5         0xe1 build/default/production/WatchApp/watchFaces/watch_face_common.o
 .debug_line      0x002ab6         0x96 build/default/production/WatchApp/watchFaces/watch_face_geometry.o
 .debug_line      0x002b4c         0x3b c:/program files/microchip/xc16/v2.10/bin/bin/../../lib\libc99-pic30-elf.a(floatunsisf.DA_o)
 .debug_line      0x002b87         0x45 c:/program files/microchip/xc16/v2.10/bin/bin/../../lib\libc99-pic30-elf.a(udivsi3.DA_o)
 .debug_line      0x002bcc         0x38 c:/program files/microchip/xc16/v2.10/bin/bin/../../lib\libc99-pic30-elf.a(umodsi3.DA_o)
 .debug_line      0x002c04        0x124 c:/program files/microchip/xc16/v2.10/bin/bin/../../lib\libc99-pic30-elf.a(divsf3x.DA_o)
 .debug_line      0x002d28         0x5e c:/program files/microchip/xc16/v2.10/bin/bin/../../lib\libc99-pic30-elf.a(typefx.DA_o)
 .debug_line      0x002d86         0x98 c:/program files/microchip/xc16/v2.10/bin/bin/../../lib\libc99-pic30-elf.a(spackfx.DA_o)
 .debug_line      0x002e1e         0x79 c:/program files/microchip/xc16/v2.10/bin/bin/../../lib\libc99-pic30-elf.a(unpackfx.DA_o)
 .debug_line      0x002e97         0x1a c:/program files/microchip/xc16/v2.10/bin/bin/../../lib\libc99-pic30-elf.a(errno.DA_o)
 .debug_line      0x002eb1         0x6c c:/program files/microchip/xc16/v2.10/bin/bin/../../lib\libc99-pic30-elf.a(floatundisf.DA_o)
 .debug_line      0x002f1d         0x5a c:/program files/microchip/xc16/v2.10/bin/bin/../../lib\libc99-pic30-elf.a(fpack.DA_o)
 .debug_line      0x002f77         0x59 c:/program files/microchip/xc16/v2.10/bin/bin/../../lib\libc99-pic30-elf.a(extendsfdf.DA_o)
 .debug_line      0x002fd0         0x4a c:/program files/microchip/xc16/v2.10/bin/bin/../../lib\libc99-pic30-elf.a(funpack.DA_o)
 .debug_line      0x00301a         0x3a c:/program files/microchip/xc16/v2.10/bin/bin/../../lib\libc99-pic30-elf.a(mulsi3.DA_o)

.debug_frame      0x000000       0x19a6
 *(.debug_frame)
 .debug_frame     0x000000         0x48 build/default/production/accel3Driver/ACCEL3.o
 .debug_frame     0x000048         0xfe build/default/production/adcDriver/ADC.o
 .debug_frame     0x000146        0x106 build/default/production/i2cDriver/I2C.o
 .debug_frame     0x00024c        0x19a build/default/production/ledDriver/LED_tests.o
 .debug_frame     0x0003e6        0x202 build/default/production/oledDriver/oledC.o
 .debug_frame     0x0005e8        0x14c build/default/production/oledDriver/oledC_shapeHandler.o
 .debug_frame     0x000734        0x224 build/default/production/oledDriver/oledC_shapes.o
 .debug_frame     0x000958        0x118 build/default/production/spiDriver/spi1_driver.o
 .debug_frame     0x000a70         0xe4 build/default/production/switchDriver/Switch.o
 .debug_frame     0x000b54         0x2e build/default/production/System/clock.o
 .debug_frame     0x000b82         0x48 build/default/production/System/delay.o
 .debug_frame     0x000bca         0x48 build/default/production/System/interrupt_manager.o
 .debug_frame     0x000c12         0x2e build/default/production/System/pin_manager.o
 .debug_frame     0x000c40         0x2e build/default/production/System/system.o
 .debug_frame     0x000c6e        0x17e build/default/production/System/traps.o
 .debug_frame     0x000dec        0x140 build/default/production/WatchApp/pomodoroTimer/pomodoro.o
 .debug_frame     0x000f2c         0x48 build/default/production/WatchApp/shared/watch_state.o
 .debug_frame     0x000f74         0xfe build/default/production/WatchApp/watchCore/alarm.o
 .debug_frame     0x001072         0xe4 build/default/production/WatchApp/watchCore/timekeeper.o
 .debug_frame     0x001156         0x7c build/default/production/WatchApp/watchFaces/analog_face.o
 .debug_frame     0x0011d2         0x96 build/default/production/WatchApp/watchFaces/binary_face.o
 .debug_frame     0x001268         0xe6 build/default/production/WatchApp/watchFaces/digital_face.o
 .debug_frame     0x00134e         0x7c build/default/production/WatchApp/watchInput/accel_input.o
 .debug_frame     0x0013ca         0x62 build/default/production/WatchApp/watchInput/buttons.o
 .debug_frame     0x00142c         0x84 build/default/production/WatchApp/watchInput/potentiometer.o
 .debug_frame     0x0014b0        0x1d6 build/default/production/WatchApp/watchMenu/menu.o
 .debug_frame     0x001686         0xaa build/default/production/Timers/Timers.o
 .debug_frame     0x001730         0x2e build/default/production/WatchApp/app_init.o
 .debug_frame     0x00175e         0x62 build/default/production/WatchApp/watchManagers/app_display_manager.o
 .debug_frame     0x0017c0         0x96 build/default/production/WatchApp/watchManagers/app_input_handler.o
 .debug_frame     0x001856         0x2e build/default/production/WatchApp/watchManagers/app_time_manager.o
 .debug_frame     0x001884         0x2e build/default/production/main.o
 .debug_frame     0x0018b2         0x2e build/default/production/WatchApp/watch_main.o
 .debug_frame     0x0018e0         0x62 build/default/production/WatchApp/watchFaces/alarm_face.o
 .debug_frame     0x001942         0x64 build/default/production/WatchApp/watchFaces/watch_face_common.o

.debug_str        0x000000        0x468
 *(.debug_str)
 .debug_str       0x000000         0x34 build/default/production/adcDriver/ADC.o
 .debug_str       0x000034         0x34 build/default/production/i2cDriver/I2C.o
 .debug_str       0x000068        0x163 build/default/production/ledDriver/LED_tests.o
 .debug_str       0x0001cb         0x46 build/default/production/oledDriver/oledC.o
 .debug_str       0x000211         0x46 build/default/production/oledDriver/oledC_shapeHandler.o
 .debug_str       0x000257         0x39 build/default/production/oledDriver/oledC_shapes.o
 .debug_str       0x000290         0x6b build/default/production/spiDriver/spi1_driver.o
 .debug_str       0x0002fb         0x17 build/default/production/switchDriver/Switch.o
 .debug_str       0x000312         0x12 build/default/production/System/clock.o
 .debug_str       0x000324         0x15 build/default/production/System/interrupt_manager.o
 .debug_str       0x000339         0x1f build/default/production/System/pin_manager.o
 .debug_str       0x000358          0xc build/default/production/System/system.o
 .debug_str       0x000364         0x18 build/default/production/System/traps.o
 .debug_str       0x00037c          0x6 build/default/production/WatchApp/pomodoroTimer/pomodoro.o
 .debug_str       0x000382          0xd build/default/production/WatchApp/watchCore/alarm.o
 .debug_str       0x00038f         0x22 build/default/production/WatchApp/watchFaces/analog_face.o
 .debug_str       0x0003b1          0x6 build/default/production/WatchApp/watchFaces/digital_face.o
 .debug_str       0x0003b7         0x4c build/default/production/WatchApp/watchMenu/menu.o
 .debug_str       0x000403         0x53 build/default/production/Timers/Timers.o
 .debug_str       0x000456          0x6 build/default/production/WatchApp/watchManagers/app_display_manager.o
 .debug_str       0x00045c          0xc build/default/production/WatchApp/watchManagers/app_input_handler.o

.debug_loc
 *(.debug_loc)

.debug_macinfo
 *(.debug_macinfo)

.debug_pubnames
                  0x000000        0xf58
 *(.debug_pubnames)
 .debug_pubnames
                  0x000000         0x35 build/default/production/accel3Driver/ACCEL3.o
 .debug_pubnames
                  0x000035         0x8c build/default/production/adcDriver/ADC.o
 .debug_pubnames
                  0x0000c1         0x51 build/default/production/i2cDriver/I2C.o
 .debug_pubnames
                  0x000112        0x13f build/default/production/ledDriver/LED_tests.o
 .debug_pubnames
                  0x000251        0x152 build/default/production/oledDriver/oledC.o
 .debug_pubnames
                  0x0003a3         0xef build/default/production/oledDriver/oledC_shapeHandler.o
 .debug_pubnames
                  0x000492         0xfe build/default/production/oledDriver/oledC_shapes.o
 .debug_pubnames
                  0x000590         0xe2 build/default/production/spiDriver/spi1_driver.o
 .debug_pubnames
                  0x000672         0x82 build/default/production/switchDriver/Switch.o
 .debug_pubnames
                  0x0006f4         0x27 build/default/production/System/clock.o
 .debug_pubnames
                  0x00071b         0x40 build/default/production/System/delay.o
 .debug_pubnames
                  0x00075b         0x2b build/default/production/System/interrupt_manager.o
 .debug_pubnames
                  0x000786         0x2d build/default/production/System/pin_manager.o
 .debug_pubnames
                  0x0007b3         0x28 build/default/production/System/system.o
 .debug_pubnames
                  0x0007db         0x7d build/default/production/System/traps.o
 .debug_pubnames
                  0x000858         0x9c build/default/production/WatchApp/pomodoroTimer/pomodoro.o
 .debug_pubnames
                  0x0008f4         0x39 build/default/production/WatchApp/shared/watch_state.o
 .debug_pubnames
                  0x00092d         0xae build/default/production/WatchApp/watchCore/alarm.o
 .debug_pubnames
                  0x0009db         0xd6 build/default/production/WatchApp/watchCore/timekeeper.o
 .debug_pubnames
                  0x000ab1         0x54 build/default/production/WatchApp/watchFaces/analog_face.o
 .debug_pubnames
                  0x000b05         0x54 build/default/production/WatchApp/watchFaces/binary_face.o
 .debug_pubnames
                  0x000b59         0x57 build/default/production/WatchApp/watchFaces/digital_face.o
 .debug_pubnames
                  0x000bb0         0x3b build/default/production/WatchApp/watchInput/accel_input.o
 .debug_pubnames
                  0x000beb         0x4b build/default/production/WatchApp/watchInput/buttons.o
 .debug_pubnames
                  0x000c36         0x59 build/default/production/WatchApp/watchInput/potentiometer.o
 .debug_pubnames
                  0x000c8f         0x87 build/default/production/WatchApp/watchMenu/menu.o
 .debug_pubnames
                  0x000d16         0x81 build/default/production/Timers/Timers.o
 .debug_pubnames
                  0x000d97         0x2d build/default/production/WatchApp/app_init.o
 .debug_pubnames
                  0x000dc4         0x28 build/default/production/WatchApp/watchManagers/app_display_manager.o
 .debug_pubnames
                  0x000dec         0x2c build/default/production/WatchApp/watchManagers/app_input_handler.o
 .debug_pubnames
                  0x000e18         0x2e build/default/production/WatchApp/watchManagers/app_time_manager.o
 .debug_pubnames
                  0x000e46         0x1b build/default/production/main.o
 .debug_pubnames
                  0x000e61         0x21 build/default/production/WatchApp/watch_main.o
 .debug_pubnames
                  0x000e82         0x51 build/default/production/WatchApp/watchFaces/alarm_face.o
 .debug_pubnames
                  0x000ed3         0x45 build/default/production/WatchApp/watchFaces/watch_face_common.o
 .debug_pubnames
                  0x000f18         0x40 build/default/production/WatchApp/watchFaces/watch_face_geometry.o

.debug_ranges
 *(.debug_ranges)

.debug_aranges    0x000000        0x4e8
 *(.debug_aranges)
 .debug_aranges
                  0x000000         0x18 build/default/production/accel3Driver/ACCEL3.o
 .debug_aranges
                  0x000018         0x18 build/default/production/adcDriver/ADC.o
 .debug_aranges
                  0x000030         0x18 build/default/production/i2cDriver/I2C.o
 .debug_aranges
                  0x000048         0x18 build/default/production/ledDriver/LED_tests.o
 .debug_aranges
                  0x000060         0x18 build/default/production/oledDriver/oledC.o
 .debug_aranges
                  0x000078         0x18 build/default/production/oledDriver/oledC_shapeHandler.o
 .debug_aranges
                  0x000090         0x18 build/default/production/oledDriver/oledC_shapes.o
 .debug_aranges
                  0x0000a8         0x18 build/default/production/spiDriver/spi1_driver.o
 .debug_aranges
                  0x0000c0         0x18 build/default/production/switchDriver/Switch.o
 .debug_aranges
                  0x0000d8         0x18 build/default/production/System/clock.o
 .debug_aranges
                  0x0000f0         0x18 build/default/production/System/delay.o
 .debug_aranges
                  0x000108         0x18 build/default/production/System/interrupt_manager.o
 .debug_aranges
                  0x000120         0x18 build/default/production/System/pin_manager.o
 .debug_aranges
                  0x000138         0x18 build/default/production/System/system.o
 .debug_aranges
                  0x000150         0x18 build/default/production/System/traps.o
 .debug_aranges
                  0x000168         0x20 build/default/production/System/where_was_i.o
 .debug_aranges
                  0x000188         0x18 build/default/production/WatchApp/pomodoroTimer/pomodoro.o
 .debug_aranges
                  0x0001a0         0x18 build/default/production/WatchApp/shared/watch_state.o
 .debug_aranges
                  0x0001b8         0x18 build/default/production/WatchApp/watchCore/alarm.o
 .debug_aranges
                  0x0001d0         0x18 build/default/production/WatchApp/watchCore/timekeeper.o
 .debug_aranges
                  0x0001e8         0x18 build/default/production/WatchApp/watchFaces/analog_face.o
 .debug_aranges
                  0x000200         0x18 build/default/production/WatchApp/watchFaces/binary_face.o
 .debug_aranges
                  0x000218         0x18 build/default/production/WatchApp/watchFaces/digital_face.o
 .debug_aranges
                  0x000230         0x18 build/default/production/WatchApp/watchInput/accel_input.o
 .debug_aranges
                  0x000248         0x18 build/default/production/WatchApp/watchInput/buttons.o
 .debug_aranges
                  0x000260         0x18 build/default/production/WatchApp/watchInput/potentiometer.o
 .debug_aranges
                  0x000278         0x18 build/default/production/WatchApp/watchMenu/menu.o
 .debug_aranges
                  0x000290         0x18 build/default/production/Timers/Timers.o
 .debug_aranges
                  0x0002a8         0x18 build/default/production/WatchApp/app_init.o
 .debug_aranges
                  0x0002c0         0x18 build/default/production/WatchApp/watchManagers/app_display_manager.o
 .debug_aranges
                  0x0002d8         0x18 build/default/production/WatchApp/watchManagers/app_input_handler.o
 .debug_aranges
                  0x0002f0         0x18 build/default/production/WatchApp/watchManagers/app_time_manager.o
 .debug_aranges
                  0x000308         0x18 build/default/production/main.o
 .debug_aranges
                  0x000320         0x18 build/default/production/WatchApp/watch_main.o
 .debug_aranges
                  0x000338         0x18 build/default/production/WatchApp/watchFaces/alarm_face.o
 .debug_aranges
                  0x000350         0x18 build/default/production/WatchApp/watchFaces/watch_face_common.o
 .debug_aranges
                  0x000368         0x20 c:/program files/microchip/xc16/v2.10/bin/bin/../../lib\libc99-pic30-elf.a(floatunsisf.DA_o)
 .debug_aranges
                  0x000388         0x20 c:/program files/microchip/xc16/v2.10/bin/bin/../../lib\libc99-pic30-elf.a(udivsi3.DA_o)
 .debug_aranges
                  0x0003a8         0x20 c:/program files/microchip/xc16/v2.10/bin/bin/../../lib\libc99-pic30-elf.a(umodsi3.DA_o)
 .debug_aranges
                  0x0003c8         0x20 c:/program files/microchip/xc16/v2.10/bin/bin/../../lib\libc99-pic30-elf.a(divsf3x.DA_o)
 .debug_aranges
                  0x0003e8         0x20 c:/program files/microchip/xc16/v2.10/bin/bin/../../lib\libc99-pic30-elf.a(typefx.DA_o)
 .debug_aranges
                  0x000408         0x20 c:/program files/microchip/xc16/v2.10/bin/bin/../../lib\libc99-pic30-elf.a(spackfx.DA_o)
 .debug_aranges
                  0x000428         0x20 c:/program files/microchip/xc16/v2.10/bin/bin/../../lib\libc99-pic30-elf.a(unpackfx.DA_o)
 .debug_aranges
                  0x000448         0x20 c:/program files/microchip/xc16/v2.10/bin/bin/../../lib\libc99-pic30-elf.a(floatundisf.DA_o)
 .debug_aranges
                  0x000468         0x20 c:/program files/microchip/xc16/v2.10/bin/bin/../../lib\libc99-pic30-elf.a(fpack.DA_o)
 .debug_aranges
                  0x000488         0x20 c:/program files/microchip/xc16/v2.10/bin/bin/../../lib\libc99-pic30-elf.a(extendsfdf.DA_o)
 .debug_aranges
                  0x0004a8         0x20 c:/program files/microchip/xc16/v2.10/bin/bin/../../lib\libc99-pic30-elf.a(funpack.DA_o)
 .debug_aranges
                  0x0004c8         0x20 c:/program files/microchip/xc16/v2.10/bin/bin/../../lib\libc99-pic30-elf.a(mulsi3.DA_o)
                    0x0000                  WREG0 = 0x0
                    0x0000                  _WREG0 = 0x0
                    0x0002                  WREG1 = 0x2
                    0x0002                  _WREG1 = 0x2
                    0x0004                  WREG2 = 0x4
                    0x0004                  _WREG2 = 0x4
                    0x0006                  WREG3 = 0x6
                    0x0006                  _WREG3 = 0x6
                    0x0008                  WREG4 = 0x8
                    0x0008                  _WREG4 = 0x8
                    0x000a                  WREG5 = 0xa
                    0x000a                  _WREG5 = 0xa
                    0x000c                  WREG6 = 0xc
                    0x000c                  _WREG6 = 0xc
                    0x000e                  WREG7 = 0xe
                    0x000e                  _WREG7 = 0xe
                    0x0010                  WREG8 = 0x10
                    0x0010                  _WREG8 = 0x10
                    0x0012                  WREG9 = 0x12
                    0x0012                  _WREG9 = 0x12
                    0x0014                  WREG10 = 0x14
                    0x0014                  _WREG10 = 0x14
                    0x0016                  WREG11 = 0x16
                    0x0016                  _WREG11 = 0x16
                    0x0018                  WREG12 = 0x18
                    0x0018                  _WREG12 = 0x18
                    0x001a                  WREG13 = 0x1a
                    0x001a                  _WREG13 = 0x1a
                    0x001c                  WREG14 = 0x1c
                    0x001c                  _WREG14 = 0x1c
                    0x001e                  WREG15 = 0x1e
                    0x001e                  _WREG15 = 0x1e
                    0x0020                  SPLIM = 0x20
                    0x0020                  _SPLIM = 0x20
                    0x002e                  PCL = 0x2e
                    0x002e                  _PCL = 0x2e
                    0x0030                  PCH = 0x30
                    0x0030                  _PCH = 0x30
                    0x0032                  DSRPAG = 0x32
                    0x0032                  _DSRPAG = 0x32
                    0x0032                  _DSRPAGbits = 0x32
                    0x0034                  DSWPAG = 0x34
                    0x0034                  _DSWPAG = 0x34
                    0x0034                  _DSWPAGbits = 0x34
                    0x0036                  RCOUNT = 0x36
                    0x0036                  _RCOUNT = 0x36
                    0x0042                  SR = 0x42
                    0x0042                  _SR = 0x42
                    0x0042                  _SRbits = 0x42
                    0x0044                  CORCON = 0x44
                    0x0044                  _CORCON = 0x44
                    0x0044                  _CORCONbits = 0x44
                    0x0052                  DISICNT = 0x52
                    0x0052                  _DISICNT = 0x52
                    0x0052                  _DISICNTbits = 0x52
                    0x0054                  TBLPAG = 0x54
                    0x0054                  _TBLPAG = 0x54
                    0x0054                  _TBLPAGbits = 0x54
                    0x0080                  INTCON1 = 0x80
                    0x0080                  _INTCON1 = 0x80
                    0x0080                  _INTCON1bits = 0x80
                    0x0082                  INTCON2 = 0x82
                    0x0082                  _INTCON2 = 0x82
                    0x0082                  _INTCON2bits = 0x82
                    0x0086                  INTCON4 = 0x86
                    0x0086                  _INTCON4 = 0x86
                    0x0086                  _INTCON4bits = 0x86
                    0x0088                  IFS0 = 0x88
                    0x0088                  _IFS0 = 0x88
                    0x0088                  _IFS0bits = 0x88
                    0x008a                  IFS1 = 0x8a
                    0x008a                  _IFS1 = 0x8a
                    0x008a                  _IFS1bits = 0x8a
                    0x008c                  IFS2 = 0x8c
                    0x008c                  _IFS2 = 0x8c
                    0x008c                  _IFS2bits = 0x8c
                    0x008e                  IFS3 = 0x8e
                    0x008e                  _IFS3 = 0x8e
                    0x008e                  _IFS3bits = 0x8e
                    0x0090                  IFS4 = 0x90
                    0x0090                  _IFS4 = 0x90
                    0x0090                  _IFS4bits = 0x90
                    0x0092                  IFS5 = 0x92
                    0x0092                  _IFS5 = 0x92
                    0x0092                  _IFS5bits = 0x92
                    0x0094                  IFS6 = 0x94
                    0x0094                  _IFS6 = 0x94
                    0x0094                  _IFS6bits = 0x94
                    0x0096                  IFS7 = 0x96
                    0x0096                  _IFS7 = 0x96
                    0x0096                  _IFS7bits = 0x96
                    0x0098                  IEC0 = 0x98
                    0x0098                  _IEC0 = 0x98
                    0x0098                  _IEC0bits = 0x98
                    0x009a                  IEC1 = 0x9a
                    0x009a                  _IEC1 = 0x9a
                    0x009a                  _IEC1bits = 0x9a
                    0x009c                  IEC2 = 0x9c
                    0x009c                  _IEC2 = 0x9c
                    0x009c                  _IEC2bits = 0x9c
                    0x009e                  IEC3 = 0x9e
                    0x009e                  _IEC3 = 0x9e
                    0x009e                  _IEC3bits = 0x9e
                    0x00a0                  IEC4 = 0xa0
                    0x00a0                  _IEC4 = 0xa0
                    0x00a0                  _IEC4bits = 0xa0
                    0x00a2                  IEC5 = 0xa2
                    0x00a2                  _IEC5 = 0xa2
                    0x00a2                  _IEC5bits = 0xa2
                    0x00a4                  IEC6 = 0xa4
                    0x00a4                  _IEC6 = 0xa4
                    0x00a4                  _IEC6bits = 0xa4
                    0x00a6                  IEC7 = 0xa6
                    0x00a6                  _IEC7 = 0xa6
                    0x00a6                  _IEC7bits = 0xa6
                    0x00a8                  IPC0 = 0xa8
                    0x00a8                  _IPC0 = 0xa8
                    0x00a8                  _IPC0bits = 0xa8
                    0x00aa                  IPC1 = 0xaa
                    0x00aa                  _IPC1 = 0xaa
                    0x00aa                  _IPC1bits = 0xaa
                    0x00ac                  IPC2 = 0xac
                    0x00ac                  _IPC2 = 0xac
                    0x00ac                  _IPC2bits = 0xac
                    0x00ae                  IPC3 = 0xae
                    0x00ae                  _IPC3 = 0xae
                    0x00ae                  _IPC3bits = 0xae
                    0x00b0                  IPC4 = 0xb0
                    0x00b0                  _IPC4 = 0xb0
                    0x00b0                  _IPC4bits = 0xb0
                    0x00b2                  IPC5 = 0xb2
                    0x00b2                  _IPC5 = 0xb2
                    0x00b2                  _IPC5bits = 0xb2
                    0x00b4                  IPC6 = 0xb4
                    0x00b4                  _IPC6 = 0xb4
                    0x00b4                  _IPC6bits = 0xb4
                    0x00b6                  IPC7 = 0xb6
                    0x00b6                  _IPC7 = 0xb6
                    0x00b6                  _IPC7bits = 0xb6
                    0x00b8                  IPC8 = 0xb8
                    0x00b8                  _IPC8 = 0xb8
                    0x00b8                  _IPC8bits = 0xb8
                    0x00ba                  IPC9 = 0xba
                    0x00ba                  _IPC9 = 0xba
                    0x00ba                  _IPC9bits = 0xba
                    0x00bc                  IPC10 = 0xbc
                    0x00bc                  _IPC10 = 0xbc
                    0x00bc                  _IPC10bits = 0xbc
                    0x00be                  IPC11 = 0xbe
                    0x00be                  _IPC11 = 0xbe
                    0x00be                  _IPC11bits = 0xbe
                    0x00c0                  IPC12 = 0xc0
                    0x00c0                  _IPC12 = 0xc0
                    0x00c0                  _IPC12bits = 0xc0
                    0x00c2                  IPC13 = 0xc2
                    0x00c2                  _IPC13 = 0xc2
                    0x00c2                  _IPC13bits = 0xc2
                    0x00c4                  IPC14 = 0xc4
                    0x00c4                  _IPC14 = 0xc4
                    0x00c4                  _IPC14bits = 0xc4
                    0x00c6                  IPC15 = 0xc6
                    0x00c6                  _IPC15 = 0xc6
                    0x00c6                  _IPC15bits = 0xc6
                    0x00c8                  IPC16 = 0xc8
                    0x00c8                  _IPC16 = 0xc8
                    0x00c8                  _IPC16bits = 0xc8
                    0x00ca                  IPC17 = 0xca
                    0x00ca                  _IPC17 = 0xca
                    0x00ca                  _IPC17bits = 0xca
                    0x00cc                  IPC18 = 0xcc
                    0x00cc                  _IPC18 = 0xcc
                    0x00cc                  _IPC18bits = 0xcc
                    0x00ce                  IPC19 = 0xce
                    0x00ce                  _IPC19 = 0xce
                    0x00ce                  _IPC19bits = 0xce
                    0x00d0                  IPC20 = 0xd0
                    0x00d0                  _IPC20 = 0xd0
                    0x00d0                  _IPC20bits = 0xd0
                    0x00d2                  IPC21 = 0xd2
                    0x00d2                  _IPC21 = 0xd2
                    0x00d2                  _IPC21bits = 0xd2
                    0x00d4                  IPC22 = 0xd4
                    0x00d4                  _IPC22 = 0xd4
                    0x00d4                  _IPC22bits = 0xd4
                    0x00d6                  IPC23 = 0xd6
                    0x00d6                  _IPC23 = 0xd6
                    0x00d6                  _IPC23bits = 0xd6
                    0x00d8                  IPC24 = 0xd8
                    0x00d8                  _IPC24 = 0xd8
                    0x00d8                  _IPC24bits = 0xd8
                    0x00da                  IPC25 = 0xda
                    0x00da                  _IPC25 = 0xda
                    0x00da                  _IPC25bits = 0xda
                    0x00dc                  IPC26 = 0xdc
                    0x00dc                  _IPC26 = 0xdc
                    0x00dc                  _IPC26bits = 0xdc
                    0x00de                  IPC27 = 0xde
                    0x00de                  _IPC27 = 0xde
                    0x00de                  _IPC27bits = 0xde
                    0x00e0                  IPC28 = 0xe0
                    0x00e0                  _IPC28 = 0xe0
                    0x00e0                  _IPC28bits = 0xe0
                    0x00e2                  IPC29 = 0xe2
                    0x00e2                  _IPC29 = 0xe2
                    0x00e2                  _IPC29bits = 0xe2
                    0x00e4                  INTTREG = 0xe4
                    0x00e4                  _INTTREG = 0xe4
                    0x00e4                  _INTTREGbits = 0xe4
                    0x0100                  OSCCON = 0x100
                    0x0100                  _OSCCON = 0x100
                    0x0100                  _OSCCONbits = 0x100
                    0x0100                  OSCCONL = 0x100
                    0x0100                  _OSCCONL = 0x100
                    0x0101                  OSCCONH = 0x101
                    0x0101                  _OSCCONH = 0x101
                    0x0102                  CLKDIV = 0x102
                    0x0102                  _CLKDIV = 0x102
                    0x0102                  _CLKDIVbits = 0x102
                    0x0106                  OSCTUN = 0x106
                    0x0106                  _OSCTUN = 0x106
                    0x0106                  _OSCTUNbits = 0x106
                    0x0108                  DCOTUN = 0x108
                    0x0108                  _DCOTUN = 0x108
                    0x0108                  _DCOTUNbits = 0x108
                    0x010a                  DCOCON = 0x10a
                    0x010a                  _DCOCON = 0x10a
                    0x010a                  _DCOCONbits = 0x10a
                    0x010c                  OSCDIV = 0x10c
                    0x010c                  _OSCDIV = 0x10c
                    0x010c                  _OSCDIVbits = 0x10c
                    0x010e                  OSCFDIV = 0x10e
                    0x010e                  _OSCFDIV = 0x10e
                    0x010e                  _OSCFDIVbits = 0x10e
                    0x0110                  RCON = 0x110
                    0x0110                  _RCON = 0x110
                    0x0110                  _RCONbits = 0x110
                    0x0114                  HLVDCON = 0x114
                    0x0114                  _HLVDCON = 0x114
                    0x0114                  _HLVDCONbits = 0x114
                    0x0128                  PMCON1 = 0x128
                    0x0128                  _PMCON1 = 0x128
                    0x0128                  _PMCON1bits = 0x128
                    0x012a                  PMCON2 = 0x12a
                    0x012a                  _PMCON2 = 0x12a
                    0x012a                  _PMCON2bits = 0x12a
                    0x012c                  PMCON3 = 0x12c
                    0x012c                  _PMCON3 = 0x12c
                    0x012c                  _PMCON3bits = 0x12c
                    0x012e                  PMCON4 = 0x12e
                    0x012e                  _PMCON4 = 0x12e
                    0x012e                  _PMCON4bits = 0x12e
                    0x0130                  PMCS1CF = 0x130
                    0x0130                  _PMCS1CF = 0x130
                    0x0130                  _PMCS1CFbits = 0x130
                    0x0132                  PMCS1BS = 0x132
                    0x0132                  _PMCS1BS = 0x132
                    0x0132                  _PMCS1BSbits = 0x132
                    0x0134                  PMCS1MD = 0x134
                    0x0134                  _PMCS1MD = 0x134
                    0x0134                  _PMCS1MDbits = 0x134
                    0x0136                  PMCS2CF = 0x136
                    0x0136                  _PMCS2CF = 0x136
                    0x0136                  _PMCS2CFbits = 0x136
                    0x0138                  PMCS2BS = 0x138
                    0x0138                  _PMCS2BS = 0x138
                    0x0138                  _PMCS2BSbits = 0x138
                    0x013a                  PMCS2MD = 0x13a
                    0x013a                  _PMCS2MD = 0x13a
                    0x013a                  _PMCS2MDbits = 0x13a
                    0x013c                  PMDOUT1 = 0x13c
                    0x013c                  _PMDOUT1 = 0x13c
                    0x013e                  PMDOUT2 = 0x13e
                    0x013e                  _PMDOUT2 = 0x13e
                    0x0140                  PMDIN1 = 0x140
                    0x0140                  _PMDIN1 = 0x140
                    0x0142                  PMDIN2 = 0x142
                    0x0142                  _PMDIN2 = 0x142
                    0x0144                  PMSTAT = 0x144
                    0x0144                  _PMSTAT = 0x144
                    0x0144                  _PMSTATbits = 0x144
                    0x0158                  CRCCON1 = 0x158
                    0x0158                  _CRCCON1 = 0x158
                    0x0158                  _CRCCON1bits = 0x158
                    0x015a                  CRCCON2 = 0x15a
                    0x015a                  _CRCCON2 = 0x15a
                    0x015a                  _CRCCON2bits = 0x15a
                    0x015c                  CRCXORL = 0x15c
                    0x015c                  _CRCXORL = 0x15c
                    0x015c                  _CRCXORLbits = 0x15c
                    0x015e                  CRCXORH = 0x15e
                    0x015e                  _CRCXORH = 0x15e
                    0x015e                  _CRCXORHbits = 0x15e
                    0x0160                  CRCDAT = 0x160
                    0x0160                  _CRCDAT = 0x160
                    0x0160                  CRCDATL = 0x160
                    0x0160                  _CRCDATL = 0x160
                    0x0162                  CRCDATH = 0x162
                    0x0162                  _CRCDATH = 0x162
                    0x0164                  CRCWDAT = 0x164
                    0x0164                  _CRCWDAT = 0x164
                    0x0164                  CRCWDATL = 0x164
                    0x0164                  _CRCWDATL = 0x164
                    0x0166                  CRCWDATH = 0x166
                    0x0166                  _CRCWDATH = 0x166
                    0x0168                  REFOCON1 = 0x168
                    0x0168                  _REFOCON1 = 0x168
                    0x0168                  _REFOCON1bits = 0x168
                    0x0168                  REFOCONL = 0x168
                    0x0168                  _REFOCONL = 0x168
                    0x0168                  _REFOCONLbits = 0x168
                    0x016a                  REFOCON2 = 0x16a
                    0x016a                  _REFOCON2 = 0x16a
                    0x016a                  _REFOCON2bits = 0x16a
                    0x016a                  REFOCONH = 0x16a
                    0x016a                  _REFOCONH = 0x16a
                    0x016a                  _REFOCONHbits = 0x16a
                    0x0178                  PMD1 = 0x178
                    0x0178                  _PMD1 = 0x178
                    0x0178                  _PMD1bits = 0x178
                    0x017a                  PMD2 = 0x17a
                    0x017a                  _PMD2 = 0x17a
                    0x017a                  _PMD2bits = 0x17a
                    0x017c                  PMD3 = 0x17c
                    0x017c                  _PMD3 = 0x17c
                    0x017c                  _PMD3bits = 0x17c
                    0x017e                  PMD4 = 0x17e
                    0x017e                  _PMD4 = 0x17e
                    0x017e                  _PMD4bits = 0x17e
                    0x0180                  PMD5 = 0x180
                    0x0180                  _PMD5 = 0x180
                    0x0180                  _PMD5bits = 0x180
                    0x0182                  PMD6 = 0x182
                    0x0182                  _PMD6 = 0x182
                    0x0182                  _PMD6bits = 0x182
                    0x0184                  PMD7 = 0x184
                    0x0184                  _PMD7 = 0x184
                    0x0184                  _PMD7bits = 0x184
                    0x0186                  PMD8 = 0x186
                    0x0186                  _PMD8 = 0x186
                    0x0186                  _PMD8bits = 0x186
                    0x0190                  TMR1 = 0x190
                    0x0190                  _TMR1 = 0x190
                    0x0192                  PR1 = 0x192
                    0x0192                  _PR1 = 0x192
                    0x0194                  T1CON = 0x194
                    0x0194                  _T1CON = 0x194
                    0x0194                  _T1CONbits = 0x194
                    0x0196                  TMR2 = 0x196
                    0x0196                  _TMR2 = 0x196
                    0x0198                  TMR3HLD = 0x198
                    0x0198                  _TMR3HLD = 0x198
                    0x019a                  TMR3 = 0x19a
                    0x019a                  _TMR3 = 0x19a
                    0x019c                  PR2 = 0x19c
                    0x019c                  _PR2 = 0x19c
                    0x019e                  PR3 = 0x19e
                    0x019e                  _PR3 = 0x19e
                    0x01a0                  T2CON = 0x1a0
                    0x01a0                  _T2CON = 0x1a0
                    0x01a0                  _T2CONbits = 0x1a0
                    0x01a2                  T3CON = 0x1a2
                    0x01a2                  _T3CON = 0x1a2
                    0x01a2                  _T3CONbits = 0x1a2
                    0x01c0                  CTMUCON1L = 0x1c0
                    0x01c0                  _CTMUCON1L = 0x1c0
                    0x01c0                  _CTMUCON1Lbits = 0x1c0
                    0x01c2                  CTMUCON1H = 0x1c2
                    0x01c2                  _CTMUCON1H = 0x1c2
                    0x01c2                  _CTMUCON1Hbits = 0x1c2
                    0x01c4                  CTMUCON2L = 0x1c4
                    0x01c4                  _CTMUCON2L = 0x1c4
                    0x01c4                  _CTMUCON2Lbits = 0x1c4
                    0x01cc                  RTCCON1L = 0x1cc
                    0x01cc                  _RTCCON1L = 0x1cc
                    0x01cc                  _RTCCON1Lbits = 0x1cc
                    0x01ce                  RTCCON1H = 0x1ce
                    0x01ce                  _RTCCON1H = 0x1ce
                    0x01ce                  _RTCCON1Hbits = 0x1ce
                    0x01d0                  RTCCON2L = 0x1d0
                    0x01d0                  _RTCCON2L = 0x1d0
                    0x01d0                  _RTCCON2Lbits = 0x1d0
                    0x01d2                  RTCCON2H = 0x1d2
                    0x01d2                  _RTCCON2H = 0x1d2
                    0x01d4                  RTCCON3L = 0x1d4
                    0x01d4                  _RTCCON3L = 0x1d4
                    0x01d4                  _RTCCON3Lbits = 0x1d4
                    0x01d8                  RTCSTATL = 0x1d8
                    0x01d8                  _RTCSTATL = 0x1d8
                    0x01d8                  _RTCSTATLbits = 0x1d8
                    0x01dc                  TIMEL = 0x1dc
                    0x01dc                  _TIMEL = 0x1dc
                    0x01dc                  _TIMELbits = 0x1dc
                    0x01de                  TIMEH = 0x1de
                    0x01de                  _TIMEH = 0x1de
                    0x01de                  _TIMEHbits = 0x1de
                    0x01e0                  DATEL = 0x1e0
                    0x01e0                  _DATEL = 0x1e0
                    0x01e0                  _DATELbits = 0x1e0
                    0x01e2                  DATEH = 0x1e2
                    0x01e2                  _DATEH = 0x1e2
                    0x01e2                  _DATEHbits = 0x1e2
                    0x01e4                  ALMTIMEL = 0x1e4
                    0x01e4                  _ALMTIMEL = 0x1e4
                    0x01e4                  _ALMTIMELbits = 0x1e4
                    0x01e6                  ALMTIMEH = 0x1e6
                    0x01e6                  _ALMTIMEH = 0x1e6
                    0x01e6                  _ALMTIMEHbits = 0x1e6
                    0x01e8                  ALMDATEL = 0x1e8
                    0x01e8                  _ALMDATEL = 0x1e8
                    0x01e8                  _ALMDATELbits = 0x1e8
                    0x01ea                  ALMDATEH = 0x1ea
                    0x01ea                  _ALMDATEH = 0x1ea
                    0x01ea                  _ALMDATEHbits = 0x1ea
                    0x01ec                  TSATIMEL = 0x1ec
                    0x01ec                  _TSATIMEL = 0x1ec
                    0x01ec                  _TSATIMELbits = 0x1ec
                    0x01ee                  TSATIMEH = 0x1ee
                    0x01ee                  _TSATIMEH = 0x1ee
                    0x01ee                  _TSATIMEHbits = 0x1ee
                    0x01f0                  TSADATEL = 0x1f0
                    0x01f0                  _TSADATEL = 0x1f0
                    0x01f0                  _TSADATELbits = 0x1f0
                    0x01f2                  TSADATEH = 0x1f2
                    0x01f2                  _TSADATEH = 0x1f2
                    0x01f2                  _TSADATEHbits = 0x1f2
                    0x0200                  IC1CON1 = 0x200
                    0x0200                  _IC1CON1 = 0x200
                    0x0200                  _IC1CON1bits = 0x200
                    0x0202                  IC1CON2 = 0x202
                    0x0202                  _IC1CON2 = 0x202
                    0x0202                  _IC1CON2bits = 0x202
                    0x0204                  IC1BUF = 0x204
                    0x0204                  _IC1BUF = 0x204
                    0x0206                  IC1TMR = 0x206
                    0x0206                  _IC1TMR = 0x206
                    0x0208                  IC2CON1 = 0x208
                    0x0208                  _IC2CON1 = 0x208
                    0x0208                  _IC2CON1bits = 0x208
                    0x020a                  IC2CON2 = 0x20a
                    0x020a                  _IC2CON2 = 0x20a
                    0x020a                  _IC2CON2bits = 0x20a
                    0x020c                  IC2BUF = 0x20c
                    0x020c                  _IC2BUF = 0x20c
                    0x020e                  IC2TMR = 0x20e
                    0x020e                  _IC2TMR = 0x20e
                    0x0210                  IC3CON1 = 0x210
                    0x0210                  _IC3CON1 = 0x210
                    0x0210                  _IC3CON1bits = 0x210
                    0x0212                  IC3CON2 = 0x212
                    0x0212                  _IC3CON2 = 0x212
                    0x0212                  _IC3CON2bits = 0x212
                    0x0214                  IC3BUF = 0x214
                    0x0214                  _IC3BUF = 0x214
                    0x0216                  IC3TMR = 0x216
                    0x0216                  _IC3TMR = 0x216
                    0x0230                  OC1CON1 = 0x230
                    0x0230                  _OC1CON1 = 0x230
                    0x0230                  _OC1CON1bits = 0x230
                    0x0232                  OC1CON2 = 0x232
                    0x0232                  _OC1CON2 = 0x232
                    0x0232                  _OC1CON2bits = 0x232
                    0x0234                  OC1RS = 0x234
                    0x0234                  _OC1RS = 0x234
                    0x0236                  OC1R = 0x236
                    0x0236                  _OC1R = 0x236
                    0x0238                  OC1TMR = 0x238
                    0x0238                  _OC1TMR = 0x238
                    0x023a                  OC2CON1 = 0x23a
                    0x023a                  _OC2CON1 = 0x23a
                    0x023a                  _OC2CON1bits = 0x23a
                    0x023c                  OC2CON2 = 0x23c
                    0x023c                  _OC2CON2 = 0x23c
                    0x023c                  _OC2CON2bits = 0x23c
                    0x023e                  OC2RS = 0x23e
                    0x023e                  _OC2RS = 0x23e
                    0x0240                  OC2R = 0x240
                    0x0240                  _OC2R = 0x240
                    0x0242                  OC2TMR = 0x242
                    0x0242                  _OC2TMR = 0x242
                    0x0244                  OC3CON1 = 0x244
                    0x0244                  _OC3CON1 = 0x244
                    0x0244                  _OC3CON1bits = 0x244
                    0x0246                  OC3CON2 = 0x246
                    0x0246                  _OC3CON2 = 0x246
                    0x0246                  _OC3CON2bits = 0x246
                    0x0248                  OC3RS = 0x248
                    0x0248                  _OC3RS = 0x248
                    0x024a                  OC3R = 0x24a
                    0x024a                  _OC3R = 0x24a
                    0x024c                  OC3TMR = 0x24c
                    0x024c                  _OC3TMR = 0x24c
                    0x026c                  CCP1CON1L = 0x26c
                    0x026c                  _CCP1CON1L = 0x26c
                    0x026c                  _CCP1CON1Lbits = 0x26c
                    0x026e                  CCP1CON1H = 0x26e
                    0x026e                  _CCP1CON1H = 0x26e
                    0x026e                  _CCP1CON1Hbits = 0x26e
                    0x0270                  CCP1CON2L = 0x270
                    0x0270                  _CCP1CON2L = 0x270
                    0x0270                  _CCP1CON2Lbits = 0x270
                    0x0272                  CCP1CON2H = 0x272
                    0x0272                  _CCP1CON2H = 0x272
                    0x0272                  _CCP1CON2Hbits = 0x272
                    0x0274                  CCP1CON3L = 0x274
                    0x0274                  _CCP1CON3L = 0x274
                    0x0274                  _CCP1CON3Lbits = 0x274
                    0x0276                  CCP1CON3H = 0x276
                    0x0276                  _CCP1CON3H = 0x276
                    0x0276                  _CCP1CON3Hbits = 0x276
                    0x0278                  CCP1STAT = 0x278
                    0x0278                  _CCP1STAT = 0x278
                    0x0278                  _CCP1STATbits = 0x278
                    0x0278                  CCP1STATL = 0x278
                    0x0278                  _CCP1STATL = 0x278
                    0x0278                  _CCP1STATLbits = 0x278
                    0x027a                  CCP1STATH = 0x27a
                    0x027a                  _CCP1STATH = 0x27a
                    0x027a                  _CCP1STATHbits = 0x27a
                    0x027c                  CCP1TMRL = 0x27c
                    0x027c                  _CCP1TMRL = 0x27c
                    0x027e                  CCP1TMRH = 0x27e
                    0x027e                  _CCP1TMRH = 0x27e
                    0x0280                  CCP1PRL = 0x280
                    0x0280                  _CCP1PRL = 0x280
                    0x0282                  CCP1PRH = 0x282
                    0x0282                  _CCP1PRH = 0x282
                    0x0284                  CCP1RA = 0x284
                    0x0284                  _CCP1RA = 0x284
                    0x0284                  CCP1RAL = 0x284
                    0x0284                  _CCP1RAL = 0x284
                    0x0286                  CCP1RAH = 0x286
                    0x0286                  _CCP1RAH = 0x286
                    0x0288                  CCP1RB = 0x288
                    0x0288                  _CCP1RB = 0x288
                    0x0288                  CCP1RBL = 0x288
                    0x0288                  _CCP1RBL = 0x288
                    0x028a                  CCP1RBH = 0x28a
                    0x028a                  _CCP1RBH = 0x28a
                    0x028c                  CCP1BUFL = 0x28c
                    0x028c                  _CCP1BUFL = 0x28c
                    0x028e                  CCP1BUFH = 0x28e
                    0x028e                  _CCP1BUFH = 0x28e
                    0x0290                  CCP2CON1L = 0x290
                    0x0290                  _CCP2CON1L = 0x290
                    0x0290                  _CCP2CON1Lbits = 0x290
                    0x0292                  CCP2CON1H = 0x292
                    0x0292                  _CCP2CON1H = 0x292
                    0x0292                  _CCP2CON1Hbits = 0x292
                    0x0294                  CCP2CON2L = 0x294
                    0x0294                  _CCP2CON2L = 0x294
                    0x0294                  _CCP2CON2Lbits = 0x294
                    0x0296                  CCP2CON2H = 0x296
                    0x0296                  _CCP2CON2H = 0x296
                    0x0296                  _CCP2CON2Hbits = 0x296
                    0x029a                  CCP2CON3H = 0x29a
                    0x029a                  _CCP2CON3H = 0x29a
                    0x029a                  _CCP2CON3Hbits = 0x29a
                    0x029c                  CCP2STAT = 0x29c
                    0x029c                  _CCP2STAT = 0x29c
                    0x029c                  _CCP2STATbits = 0x29c
                    0x029c                  CCP2STATL = 0x29c
                    0x029c                  _CCP2STATL = 0x29c
                    0x029c                  _CCP2STATLbits = 0x29c
                    0x029e                  CCP2STATH = 0x29e
                    0x029e                  _CCP2STATH = 0x29e
                    0x029e                  _CCP2STATHbits = 0x29e
                    0x02a0                  CCP2TMRL = 0x2a0
                    0x02a0                  _CCP2TMRL = 0x2a0
                    0x02a2                  CCP2TMRH = 0x2a2
                    0x02a2                  _CCP2TMRH = 0x2a2
                    0x02a4                  CCP2PRL = 0x2a4
                    0x02a4                  _CCP2PRL = 0x2a4
                    0x02a6                  CCP2PRH = 0x2a6
                    0x02a6                  _CCP2PRH = 0x2a6
                    0x02a8                  CCP2RA = 0x2a8
                    0x02a8                  _CCP2RA = 0x2a8
                    0x02a8                  CCP2RAL = 0x2a8
                    0x02a8                  _CCP2RAL = 0x2a8
                    0x02aa                  CCP2RAH = 0x2aa
                    0x02aa                  _CCP2RAH = 0x2aa
                    0x02ac                  CCP2RB = 0x2ac
                    0x02ac                  _CCP2RB = 0x2ac
                    0x02ac                  CCP2RBL = 0x2ac
                    0x02ac                  _CCP2RBL = 0x2ac
                    0x02ae                  CCP2RBH = 0x2ae
                    0x02ae                  _CCP2RBH = 0x2ae
                    0x02b0                  CCP2BUFL = 0x2b0
                    0x02b0                  _CCP2BUFL = 0x2b0
                    0x02b2                  CCP2BUFH = 0x2b2
                    0x02b2                  _CCP2BUFH = 0x2b2
                    0x02b4                  CCP3CON1L = 0x2b4
                    0x02b4                  _CCP3CON1L = 0x2b4
                    0x02b4                  _CCP3CON1Lbits = 0x2b4
                    0x02b6                  CCP3CON1H = 0x2b6
                    0x02b6                  _CCP3CON1H = 0x2b6
                    0x02b6                  _CCP3CON1Hbits = 0x2b6
                    0x02b8                  CCP3CON2L = 0x2b8
                    0x02b8                  _CCP3CON2L = 0x2b8
                    0x02b8                  _CCP3CON2Lbits = 0x2b8
                    0x02ba                  CCP3CON2H = 0x2ba
                    0x02ba                  _CCP3CON2H = 0x2ba
                    0x02ba                  _CCP3CON2Hbits = 0x2ba
                    0x02be                  CCP3CON3H = 0x2be
                    0x02be                  _CCP3CON3H = 0x2be
                    0x02be                  _CCP3CON3Hbits = 0x2be
                    0x02c0                  CCP3STAT = 0x2c0
                    0x02c0                  _CCP3STAT = 0x2c0
                    0x02c0                  _CCP3STATbits = 0x2c0
                    0x02c0                  CCP3STATL = 0x2c0
                    0x02c0                  _CCP3STATL = 0x2c0
                    0x02c0                  _CCP3STATLbits = 0x2c0
                    0x02c2                  CCP3STATH = 0x2c2
                    0x02c2                  _CCP3STATH = 0x2c2
                    0x02c2                  _CCP3STATHbits = 0x2c2
                    0x02c4                  CCP3TMRL = 0x2c4
                    0x02c4                  _CCP3TMRL = 0x2c4
                    0x02c6                  CCP3TMRH = 0x2c6
                    0x02c6                  _CCP3TMRH = 0x2c6
                    0x02c8                  CCP3PRL = 0x2c8
                    0x02c8                  _CCP3PRL = 0x2c8
                    0x02ca                  CCP3PRH = 0x2ca
                    0x02ca                  _CCP3PRH = 0x2ca
                    0x02cc                  CCP3RA = 0x2cc
                    0x02cc                  _CCP3RA = 0x2cc
                    0x02cc                  CCP3RAL = 0x2cc
                    0x02cc                  _CCP3RAL = 0x2cc
                    0x02ce                  CCP3RAH = 0x2ce
                    0x02ce                  _CCP3RAH = 0x2ce
                    0x02d0                  CCP3RB = 0x2d0
                    0x02d0                  _CCP3RB = 0x2d0
                    0x02d0                  CCP3RBL = 0x2d0
                    0x02d0                  _CCP3RBL = 0x2d0
                    0x02d2                  CCP3RBH = 0x2d2
                    0x02d2                  _CCP3RBH = 0x2d2
                    0x02d4                  CCP3BUFL = 0x2d4
                    0x02d4                  _CCP3BUFL = 0x2d4
                    0x02d6                  CCP3BUFH = 0x2d6
                    0x02d6                  _CCP3BUFH = 0x2d6
                    0x02e6                  CMSTAT = 0x2e6
                    0x02e6                  _CMSTAT = 0x2e6
                    0x02e6                  _CMSTATbits = 0x2e6
                    0x02e8                  CVRCON = 0x2e8
                    0x02e8                  _CVRCON = 0x2e8
                    0x02e8                  _CVRCONbits = 0x2e8
                    0x02ea                  CM1CON = 0x2ea
                    0x02ea                  _CM1CON = 0x2ea
                    0x02ea                  _CM1CONbits = 0x2ea
                    0x02ec                  CM2CON = 0x2ec
                    0x02ec                  _CM2CON = 0x2ec
                    0x02ec                  _CM2CONbits = 0x2ec
                    0x02ee                  CM3CON = 0x2ee
                    0x02ee                  _CM3CON = 0x2ee
                    0x02ee                  _CM3CONbits = 0x2ee
                    0x02f4                  ANCFG = 0x2f4
                    0x02f4                  _ANCFG = 0x2f4
                    0x02f4                  _ANCFGbits = 0x2f4
                    0x0300                  CCP4CON1L = 0x300
                    0x0300                  _CCP4CON1L = 0x300
                    0x0300                  _CCP4CON1Lbits = 0x300
                    0x0302                  CCP4CON1H = 0x302
                    0x0302                  _CCP4CON1H = 0x302
                    0x0302                  _CCP4CON1Hbits = 0x302
                    0x0304                  CCP4CON2L = 0x304
                    0x0304                  _CCP4CON2L = 0x304
                    0x0304                  _CCP4CON2Lbits = 0x304
                    0x0306                  CCP4CON2H = 0x306
                    0x0306                  _CCP4CON2H = 0x306
                    0x0306                  _CCP4CON2Hbits = 0x306
                    0x030a                  CCP4CON3H = 0x30a
                    0x030a                  _CCP4CON3H = 0x30a
                    0x030a                  _CCP4CON3Hbits = 0x30a
                    0x030c                  CCP4STAT = 0x30c
                    0x030c                  _CCP4STAT = 0x30c
                    0x030c                  _CCP4STATbits = 0x30c
                    0x030c                  CCP4STATL = 0x30c
                    0x030c                  _CCP4STATL = 0x30c
                    0x030c                  _CCP4STATLbits = 0x30c
                    0x030e                  CCP4STATH = 0x30e
                    0x030e                  _CCP4STATH = 0x30e
                    0x030e                  _CCP4STATHbits = 0x30e
                    0x0310                  CCP4TMRL = 0x310
                    0x0310                  _CCP4TMRL = 0x310
                    0x0312                  CCP4TMRH = 0x312
                    0x0312                  _CCP4TMRH = 0x312
                    0x0314                  CCP4PRL = 0x314
                    0x0314                  _CCP4PRL = 0x314
                    0x0316                  CCP4PRH = 0x316
                    0x0316                  _CCP4PRH = 0x316
                    0x0318                  CCP4RA = 0x318
                    0x0318                  _CCP4RA = 0x318
                    0x0318                  CCP4RAL = 0x318
                    0x0318                  _CCP4RAL = 0x318
                    0x031a                  CCP4RAH = 0x31a
                    0x031a                  _CCP4RAH = 0x31a
                    0x031c                  CCP4RB = 0x31c
                    0x031c                  _CCP4RB = 0x31c
                    0x031c                  CCP4RBL = 0x31c
                    0x031c                  _CCP4RBL = 0x31c
                    0x031e                  CCP4RBH = 0x31e
                    0x031e                  _CCP4RBH = 0x31e
                    0x0320                  CCP4BUFL = 0x320
                    0x0320                  _CCP4BUFL = 0x320
                    0x0322                  CCP4BUFH = 0x322
                    0x0322                  _CCP4BUFH = 0x322
                    0x0398                  U1MODE = 0x398
                    0x0398                  _U1MODE = 0x398
                    0x0398                  _U1MODEbits = 0x398
                    0x039a                  U1STA = 0x39a
                    0x039a                  _U1STA = 0x39a
                    0x039a                  _U1STAbits = 0x39a
                    0x039c                  U1TXREG = 0x39c
                    0x039c                  _U1TXREG = 0x39c
                    0x039c                  _U1TXREGbits = 0x39c
                    0x039e                  U1RXREG = 0x39e
                    0x039e                  _U1RXREG = 0x39e
                    0x03a0                  U1BRG = 0x3a0
                    0x03a0                  _U1BRG = 0x3a0
                    0x03a2                  U1ADMD = 0x3a2
                    0x03a2                  _U1ADMD = 0x3a2
                    0x03a2                  _U1ADMDbits = 0x3a2
                    0x03a4                  U1SCCON = 0x3a4
                    0x03a4                  _U1SCCON = 0x3a4
                    0x03a4                  _U1SCCONbits = 0x3a4
                    0x03a6                  U1SCINT = 0x3a6
                    0x03a6                  _U1SCINT = 0x3a6
                    0x03a6                  _U1SCINTbits = 0x3a6
                    0x03a8                  U1GTC = 0x3a8
                    0x03a8                  _U1GTC = 0x3a8
                    0x03a8                  _U1GTCbits = 0x3a8
                    0x03aa                  U1WTCL = 0x3aa
                    0x03aa                  _U1WTCL = 0x3aa
                    0x03aa                  _U1WTCLbits = 0x3aa
                    0x03ac                  U1WTCH = 0x3ac
                    0x03ac                  _U1WTCH = 0x3ac
                    0x03ac                  _U1WTCHbits = 0x3ac
                    0x03ae                  U2MODE = 0x3ae
                    0x03ae                  _U2MODE = 0x3ae
                    0x03ae                  _U2MODEbits = 0x3ae
                    0x03b0                  U2STA = 0x3b0
                    0x03b0                  _U2STA = 0x3b0
                    0x03b0                  _U2STAbits = 0x3b0
                    0x03b2                  U2TXREG = 0x3b2
                    0x03b2                  _U2TXREG = 0x3b2
                    0x03b2                  _U2TXREGbits = 0x3b2
                    0x03b4                  U2RXREG = 0x3b4
                    0x03b4                  _U2RXREG = 0x3b4
                    0x03b6                  U2BRG = 0x3b6
                    0x03b6                  _U2BRG = 0x3b6
                    0x03b8                  U2ADMD = 0x3b8
                    0x03b8                  _U2ADMD = 0x3b8
                    0x03b8                  _U2ADMDbits = 0x3b8
                    0x03ba                  U2SCCON = 0x3ba
                    0x03ba                  _U2SCCON = 0x3ba
                    0x03ba                  _U2SCCONbits = 0x3ba
                    0x03bc                  U2SCINT = 0x3bc
                    0x03bc                  _U2SCINT = 0x3bc
                    0x03bc                  _U2SCINTbits = 0x3bc
                    0x03be                  U2GTC = 0x3be
                    0x03be                  _U2GTC = 0x3be
                    0x03be                  _U2GTCbits = 0x3be
                    0x03c0                  U2WTCL = 0x3c0
                    0x03c0                  _U2WTCL = 0x3c0
                    0x03c0                  _U2WTCLbits = 0x3c0
                    0x03c2                  U2WTCH = 0x3c2
                    0x03c2                  _U2WTCH = 0x3c2
                    0x03c2                  _U2WTCHbits = 0x3c2
                    0x03f4                  SPI1CON1 = 0x3f4
                    0x03f4                  _SPI1CON1 = 0x3f4
                    0x03f4                  _SPI1CON1bits = 0x3f4
                    0x03f4                  SPI1CON1L = 0x3f4
                    0x03f4                  _SPI1CON1L = 0x3f4
                    0x03f4                  _SPI1CON1Lbits = 0x3f4
                    0x03f6                  SPI1CON1H = 0x3f6
                    0x03f6                  _SPI1CON1H = 0x3f6
                    0x03f6                  _SPI1CON1Hbits = 0x3f6
                    0x03f6                  SPI1CON2 = 0x3f6
                    0x03f6                  _SPI1CON2 = 0x3f6
                    0x03f6                  _SPI1CON2bits = 0x3f6
                    0x03f8                  SPI1CON2L = 0x3f8
                    0x03f8                  _SPI1CON2L = 0x3f8
                    0x03f8                  _SPI1CON2Lbits = 0x3f8
                    0x03f8                  SPI1CON3 = 0x3f8
                    0x03f8                  _SPI1CON3 = 0x3f8
                    0x03f8                  _SPI1CON3bits = 0x3f8
                    0x03fc                  SPI1STATL = 0x3fc
                    0x03fc                  _SPI1STATL = 0x3fc
                    0x03fc                  _SPI1STATLbits = 0x3fc
                    0x03fe                  SPI1STATH = 0x3fe
                    0x03fe                  _SPI1STATH = 0x3fe
                    0x03fe                  _SPI1STATHbits = 0x3fe
                    0x0400                  SPI1BUFL = 0x400
                    0x0400                  _SPI1BUFL = 0x400
                    0x0400                  _SPI1BUFLbits = 0x400
                    0x0402                  SPI1BUFH = 0x402
                    0x0402                  _SPI1BUFH = 0x402
                    0x0402                  _SPI1BUFHbits = 0x402
                    0x0404                  SPI1BRGL = 0x404
                    0x0404                  _SPI1BRGL = 0x404
                    0x0404                  _SPI1BRGLbits = 0x404
                    0x0408                  SPI1IMSK1 = 0x408
                    0x0408                  _SPI1IMSK1 = 0x408
                    0x0408                  _SPI1IMSK1bits = 0x408
                    0x0408                  SPI1IMSKL = 0x408
                    0x0408                  _SPI1IMSKL = 0x408
                    0x0408                  _SPI1IMSKLbits = 0x408
                    0x040a                  SPI1IMSK2 = 0x40a
                    0x040a                  _SPI1IMSK2 = 0x40a
                    0x040a                  _SPI1IMSK2bits = 0x40a
                    0x040a                  SPI1IMSKH = 0x40a
                    0x040a                  _SPI1IMSKH = 0x40a
                    0x040a                  _SPI1IMSKHbits = 0x40a
                    0x040c                  SPI1URDTL = 0x40c
                    0x040c                  _SPI1URDTL = 0x40c
                    0x040c                  _SPI1URDTLbits = 0x40c
                    0x040e                  SPI1URDTH = 0x40e
                    0x040e                  _SPI1URDTH = 0x40e
                    0x040e                  _SPI1URDTHbits = 0x40e
                    0x0410                  SPI2CON1 = 0x410
                    0x0410                  _SPI2CON1 = 0x410
                    0x0410                  _SPI2CON1bits = 0x410
                    0x0410                  SPI2CON1L = 0x410
                    0x0410                  _SPI2CON1L = 0x410
                    0x0410                  _SPI2CON1Lbits = 0x410
                    0x0412                  SPI2CON1H = 0x412
                    0x0412                  _SPI2CON1H = 0x412
                    0x0412                  _SPI2CON1Hbits = 0x412
                    0x0412                  SPI2CON2 = 0x412
                    0x0412                  _SPI2CON2 = 0x412
                    0x0412                  _SPI2CON2bits = 0x412
                    0x0414                  SPI2CON2L = 0x414
                    0x0414                  _SPI2CON2L = 0x414
                    0x0414                  _SPI2CON2Lbits = 0x414
                    0x0414                  SPI2CON3 = 0x414
                    0x0414                  _SPI2CON3 = 0x414
                    0x0414                  _SPI2CON3bits = 0x414
                    0x0418                  SPI2STATL = 0x418
                    0x0418                  _SPI2STATL = 0x418
                    0x0418                  _SPI2STATLbits = 0x418
                    0x041a                  SPI2STATH = 0x41a
                    0x041a                  _SPI2STATH = 0x41a
                    0x041a                  _SPI2STATHbits = 0x41a
                    0x041c                  SPI2BUFL = 0x41c
                    0x041c                  _SPI2BUFL = 0x41c
                    0x041c                  _SPI2BUFLbits = 0x41c
                    0x041e                  SPI2BUFH = 0x41e
                    0x041e                  _SPI2BUFH = 0x41e
                    0x041e                  _SPI2BUFHbits = 0x41e
                    0x0420                  SPI2BRGL = 0x420
                    0x0420                  _SPI2BRGL = 0x420
                    0x0420                  _SPI2BRGLbits = 0x420
                    0x0424                  SPI2IMSK1 = 0x424
                    0x0424                  _SPI2IMSK1 = 0x424
                    0x0424                  _SPI2IMSK1bits = 0x424
                    0x0424                  SPI2IMSKL = 0x424
                    0x0424                  _SPI2IMSKL = 0x424
                    0x0424                  _SPI2IMSKLbits = 0x424
                    0x0426                  SPI2IMSK2 = 0x426
                    0x0426                  _SPI2IMSK2 = 0x426
                    0x0426                  _SPI2IMSK2bits = 0x426
                    0x0426                  SPI2IMSKH = 0x426
                    0x0426                  _SPI2IMSKH = 0x426
                    0x0426                  _SPI2IMSKHbits = 0x426
                    0x0428                  SPI2URDTL = 0x428
                    0x0428                  _SPI2URDTL = 0x428
                    0x0428                  _SPI2URDTLbits = 0x428
                    0x042a                  SPI2URDTH = 0x42a
                    0x042a                  _SPI2URDTH = 0x42a
                    0x042a                  _SPI2URDTHbits = 0x42a
                    0x042c                  SPI3CON1 = 0x42c
                    0x042c                  _SPI3CON1 = 0x42c
                    0x042c                  _SPI3CON1bits = 0x42c
                    0x042c                  SPI3CON1L = 0x42c
                    0x042c                  _SPI3CON1L = 0x42c
                    0x042c                  _SPI3CON1Lbits = 0x42c
                    0x042e                  SPI3CON1H = 0x42e
                    0x042e                  _SPI3CON1H = 0x42e
                    0x042e                  _SPI3CON1Hbits = 0x42e
                    0x042e                  SPI3CON2 = 0x42e
                    0x042e                  _SPI3CON2 = 0x42e
                    0x042e                  _SPI3CON2bits = 0x42e
                    0x0430                  SPI3CON2L = 0x430
                    0x0430                  _SPI3CON2L = 0x430
                    0x0430                  _SPI3CON2Lbits = 0x430
                    0x0430                  SPI3CON3 = 0x430
                    0x0430                  _SPI3CON3 = 0x430
                    0x0430                  _SPI3CON3bits = 0x430
                    0x0434                  SPI3STATL = 0x434
                    0x0434                  _SPI3STATL = 0x434
                    0x0434                  _SPI3STATLbits = 0x434
                    0x0436                  SPI3STATH = 0x436
                    0x0436                  _SPI3STATH = 0x436
                    0x0436                  _SPI3STATHbits = 0x436
                    0x0438                  SPI3BUFL = 0x438
                    0x0438                  _SPI3BUFL = 0x438
                    0x0438                  _SPI3BUFLbits = 0x438
                    0x043a                  SPI3BUFH = 0x43a
                    0x043a                  _SPI3BUFH = 0x43a
                    0x043a                  _SPI3BUFHbits = 0x43a
                    0x043c                  SPI3BRGL = 0x43c
                    0x043c                  _SPI3BRGL = 0x43c
                    0x043c                  _SPI3BRGLbits = 0x43c
                    0x0440                  SPI3IMSK1 = 0x440
                    0x0440                  _SPI3IMSK1 = 0x440
                    0x0440                  _SPI3IMSK1bits = 0x440
                    0x0440                  SPI3IMSKL = 0x440
                    0x0440                  _SPI3IMSKL = 0x440
                    0x0440                  _SPI3IMSKLbits = 0x440
                    0x0442                  SPI3IMSK2 = 0x442
                    0x0442                  _SPI3IMSK2 = 0x442
                    0x0442                  _SPI3IMSK2bits = 0x442
                    0x0442                  SPI3IMSKH = 0x442
                    0x0442                  _SPI3IMSKH = 0x442
                    0x0442                  _SPI3IMSKHbits = 0x442
                    0x0444                  SPI3URDTL = 0x444
                    0x0444                  _SPI3URDTL = 0x444
                    0x0444                  _SPI3URDTLbits = 0x444
                    0x0446                  SPI3URDTH = 0x446
                    0x0446                  _SPI3URDTH = 0x446
                    0x0446                  _SPI3URDTHbits = 0x446
                    0x0464                  CLC1CONL = 0x464
                    0x0464                  _CLC1CONL = 0x464
                    0x0464                  _CLC1CONLbits = 0x464
                    0x0466                  CLC1CONH = 0x466
                    0x0466                  _CLC1CONH = 0x466
                    0x0466                  _CLC1CONHbits = 0x466
                    0x0468                  CLC1SEL = 0x468
                    0x0468                  _CLC1SEL = 0x468
                    0x0468                  _CLC1SELbits = 0x468
                    0x0468                  CLC1SELL = 0x468
                    0x0468                  _CLC1SELL = 0x468
                    0x0468                  _CLC1SELLbits = 0x468
                    0x046c                  CLC1GLSL = 0x46c
                    0x046c                  _CLC1GLSL = 0x46c
                    0x046c                  _CLC1GLSLbits = 0x46c
                    0x046e                  CLC1GLSH = 0x46e
                    0x046e                  _CLC1GLSH = 0x46e
                    0x046e                  _CLC1GLSHbits = 0x46e
                    0x0470                  CLC2CONL = 0x470
                    0x0470                  _CLC2CONL = 0x470
                    0x0470                  _CLC2CONLbits = 0x470
                    0x0472                  CLC2CONH = 0x472
                    0x0472                  _CLC2CONH = 0x472
                    0x0472                  _CLC2CONHbits = 0x472
                    0x0474                  CLC2SEL = 0x474
                    0x0474                  _CLC2SEL = 0x474
                    0x0474                  _CLC2SELbits = 0x474
                    0x0474                  CLC2SELL = 0x474
                    0x0474                  _CLC2SELL = 0x474
                    0x0474                  _CLC2SELLbits = 0x474
                    0x0478                  CLC2GLSL = 0x478
                    0x0478                  _CLC2GLSL = 0x478
                    0x0478                  _CLC2GLSLbits = 0x478
                    0x047a                  CLC2GLSH = 0x47a
                    0x047a                  _CLC2GLSH = 0x47a
                    0x047a                  _CLC2GLSHbits = 0x47a
                    0x0494                  I2C1RCV = 0x494
                    0x0494                  _I2C1RCV = 0x494
                    0x0494                  _I2C1RCVbits = 0x494
                    0x0496                  I2C1TRN = 0x496
                    0x0496                  _I2C1TRN = 0x496
                    0x0496                  _I2C1TRNbits = 0x496
                    0x0498                  I2C1BRG = 0x498
                    0x0498                  _I2C1BRG = 0x498
                    0x049a                  I2C1CON1 = 0x49a
                    0x049a                  _I2C1CON1 = 0x49a
                    0x049a                  _I2C1CON1bits = 0x49a
                    0x049a                  I2C1CONL = 0x49a
                    0x049a                  _I2C1CONL = 0x49a
                    0x049a                  _I2C1CONLbits = 0x49a
                    0x049c                  I2C1CON2 = 0x49c
                    0x049c                  _I2C1CON2 = 0x49c
                    0x049c                  _I2C1CON2bits = 0x49c
                    0x049c                  I2C1CONH = 0x49c
                    0x049c                  _I2C1CONH = 0x49c
                    0x049c                  _I2C1CONHbits = 0x49c
                    0x049e                  I2C1STAT = 0x49e
                    0x049e                  _I2C1STAT = 0x49e
                    0x049e                  _I2C1STATbits = 0x49e
                    0x04a0                  I2C1ADD = 0x4a0
                    0x04a0                  _I2C1ADD = 0x4a0
                    0x04a0                  _I2C1ADDbits = 0x4a0
                    0x04a2                  I2C1MSK = 0x4a2
                    0x04a2                  _I2C1MSK = 0x4a2
                    0x04a2                  _I2C1MSKbits = 0x4a2
                    0x04a4                  I2C2RCV = 0x4a4
                    0x04a4                  _I2C2RCV = 0x4a4
                    0x04a4                  _I2C2RCVbits = 0x4a4
                    0x04a6                  I2C2TRN = 0x4a6
                    0x04a6                  _I2C2TRN = 0x4a6
                    0x04a6                  _I2C2TRNbits = 0x4a6
                    0x04a8                  I2C2BRG = 0x4a8
                    0x04a8                  _I2C2BRG = 0x4a8
                    0x04aa                  I2C2CON1 = 0x4aa
                    0x04aa                  _I2C2CON1 = 0x4aa
                    0x04aa                  _I2C2CON1bits = 0x4aa
                    0x04aa                  I2C2CONL = 0x4aa
                    0x04aa                  _I2C2CONL = 0x4aa
                    0x04aa                  _I2C2CONLbits = 0x4aa
                    0x04ac                  I2C2CON2 = 0x4ac
                    0x04ac                  _I2C2CON2 = 0x4ac
                    0x04ac                  _I2C2CON2bits = 0x4ac
                    0x04ac                  I2C2CONH = 0x4ac
                    0x04ac                  _I2C2CONH = 0x4ac
                    0x04ac                  _I2C2CONHbits = 0x4ac
                    0x04ae                  I2C2STAT = 0x4ae
                    0x04ae                  _I2C2STAT = 0x4ae
                    0x04ae                  _I2C2STATbits = 0x4ae
                    0x04b0                  I2C2ADD = 0x4b0
                    0x04b0                  _I2C2ADD = 0x4b0
                    0x04b0                  _I2C2ADDbits = 0x4b0
                    0x04b2                  I2C2MSK = 0x4b2
                    0x04b2                  _I2C2MSK = 0x4b2
                    0x04b2                  _I2C2MSKbits = 0x4b2
                    0x04c4                  DMACON = 0x4c4
                    0x04c4                  _DMACON = 0x4c4
                    0x04c4                  _DMACONbits = 0x4c4
                    0x04c6                  DMABUF = 0x4c6
                    0x04c6                  _DMABUF = 0x4c6
                    0x04c8                  DMAL = 0x4c8
                    0x04c8                  _DMAL = 0x4c8
                    0x04ca                  DMAH = 0x4ca
                    0x04ca                  _DMAH = 0x4ca
                    0x04cc                  DMACH0 = 0x4cc
                    0x04cc                  _DMACH0 = 0x4cc
                    0x04cc                  _DMACH0bits = 0x4cc
                    0x04ce                  DMAINT0 = 0x4ce
                    0x04ce                  _DMAINT0 = 0x4ce
                    0x04ce                  _DMAINT0bits = 0x4ce
                    0x04d0                  DMASRC0 = 0x4d0
                    0x04d0                  _DMASRC0 = 0x4d0
                    0x04d2                  DMADST0 = 0x4d2
                    0x04d2                  _DMADST0 = 0x4d2
                    0x04d4                  DMACNT0 = 0x4d4
                    0x04d4                  _DMACNT0 = 0x4d4
                    0x04d6                  DMACH1 = 0x4d6
                    0x04d6                  _DMACH1 = 0x4d6
                    0x04d6                  _DMACH1bits = 0x4d6
                    0x04d8                  DMAINT1 = 0x4d8
                    0x04d8                  _DMAINT1 = 0x4d8
                    0x04d8                  _DMAINT1bits = 0x4d8
                    0x04da                  DMASRC1 = 0x4da
                    0x04da                  _DMASRC1 = 0x4da
                    0x04dc                  DMADST1 = 0x4dc
                    0x04dc                  _DMADST1 = 0x4dc
                    0x04de                  DMACNT1 = 0x4de
                    0x04de                  _DMACNT1 = 0x4de
                    0x04e0                  DMACH2 = 0x4e0
                    0x04e0                  _DMACH2 = 0x4e0
                    0x04e0                  _DMACH2bits = 0x4e0
                    0x04e2                  DMAINT2 = 0x4e2
                    0x04e2                  _DMAINT2 = 0x4e2
                    0x04e2                  _DMAINT2bits = 0x4e2
                    0x04e4                  DMASRC2 = 0x4e4
                    0x04e4                  _DMASRC2 = 0x4e4
                    0x04e6                  DMADST2 = 0x4e6
                    0x04e6                  _DMADST2 = 0x4e6
                    0x04e8                  DMACNT2 = 0x4e8
                    0x04e8                  _DMACNT2 = 0x4e8
                    0x04ea                  DMACH3 = 0x4ea
                    0x04ea                  _DMACH3 = 0x4ea
                    0x04ea                  _DMACH3bits = 0x4ea
                    0x04ec                  DMAINT3 = 0x4ec
                    0x04ec                  _DMAINT3 = 0x4ec
                    0x04ec                  _DMAINT3bits = 0x4ec
                    0x04ee                  DMASRC3 = 0x4ee
                    0x04ee                  _DMASRC3 = 0x4ee
                    0x04f0                  DMADST3 = 0x4f0
                    0x04f0                  _DMADST3 = 0x4f0
                    0x04f2                  DMACNT3 = 0x4f2
                    0x04f2                  _DMACNT3 = 0x4f2
                    0x04f4                  DMACH4 = 0x4f4
                    0x04f4                  _DMACH4 = 0x4f4
                    0x04f4                  _DMACH4bits = 0x4f4
                    0x04f6                  DMAINT4 = 0x4f6
                    0x04f6                  _DMAINT4 = 0x4f6
                    0x04f6                  _DMAINT4bits = 0x4f6
                    0x04f8                  DMASRC4 = 0x4f8
                    0x04f8                  _DMASRC4 = 0x4f8
                    0x04fa                  DMADST4 = 0x4fa
                    0x04fa                  _DMADST4 = 0x4fa
                    0x04fc                  DMACNT4 = 0x4fc
                    0x04fc                  _DMACNT4 = 0x4fc
                    0x04fe                  DMACH5 = 0x4fe
                    0x04fe                  _DMACH5 = 0x4fe
                    0x04fe                  _DMACH5bits = 0x4fe
                    0x0500                  DMAINT5 = 0x500
                    0x0500                  _DMAINT5 = 0x500
                    0x0500                  _DMAINT5bits = 0x500
                    0x0502                  DMASRC5 = 0x502
                    0x0502                  _DMASRC5 = 0x502
                    0x0504                  DMADST5 = 0x504
                    0x0504                  _DMADST5 = 0x504
                    0x0506                  DMACNT5 = 0x506
                    0x0506                  _DMACNT5 = 0x506
                    0x065e                  PADCON = 0x65e
                    0x065e                  _PADCON = 0x65e
                    0x065e                  _PADCONbits = 0x65e
                    0x0660                  IOCSTAT = 0x660
                    0x0660                  _IOCSTAT = 0x660
                    0x0660                  _IOCSTATbits = 0x660
                    0x0662                  TRISA = 0x662
                    0x0662                  _TRISA = 0x662
                    0x0662                  _TRISAbits = 0x662
                    0x0664                  PORTA = 0x664
                    0x0664                  _PORTA = 0x664
                    0x0664                  _PORTAbits = 0x664
                    0x0666                  LATA = 0x666
                    0x0666                  _LATA = 0x666
                    0x0666                  _LATAbits = 0x666
                    0x0668                  ODCA = 0x668
                    0x0668                  _ODCA = 0x668
                    0x0668                  _ODCAbits = 0x668
                    0x066a                  ANSA = 0x66a
                    0x066a                  _ANSA = 0x66a
                    0x066a                  _ANSAbits = 0x66a
                    0x066a                  ANSELA = 0x66a
                    0x066a                  _ANSELA = 0x66a
                    0x066a                  _ANSELAbits = 0x66a
                    0x066c                  IOCPA = 0x66c
                    0x066c                  _IOCPA = 0x66c
                    0x066c                  _IOCPAbits = 0x66c
                    0x066e                  IOCNA = 0x66e
                    0x066e                  _IOCNA = 0x66e
                    0x066e                  _IOCNAbits = 0x66e
                    0x0670                  IOCFA = 0x670
                    0x0670                  _IOCFA = 0x670
                    0x0670                  _IOCFAbits = 0x670
                    0x0672                  CNPUA = 0x672
                    0x0672                  _CNPUA = 0x672
                    0x0672                  _CNPUAbits = 0x672
                    0x0672                  IOCPUA = 0x672
                    0x0672                  _IOCPUA = 0x672
                    0x0672                  _IOCPUAbits = 0x672
                    0x0674                  CNPDA = 0x674
                    0x0674                  _CNPDA = 0x674
                    0x0674                  _CNPDAbits = 0x674
                    0x0674                  IOCPDA = 0x674
                    0x0674                  _IOCPDA = 0x674
                    0x0674                  _IOCPDAbits = 0x674
                    0x0676                  TRISB = 0x676
                    0x0676                  _TRISB = 0x676
                    0x0676                  _TRISBbits = 0x676
                    0x0678                  PORTB = 0x678
                    0x0678                  _PORTB = 0x678
                    0x0678                  _PORTBbits = 0x678
                    0x067a                  LATB = 0x67a
                    0x067a                  _LATB = 0x67a
                    0x067a                  _LATBbits = 0x67a
                    0x067c                  ODCB = 0x67c
                    0x067c                  _ODCB = 0x67c
                    0x067c                  _ODCBbits = 0x67c
                    0x067e                  ANSB = 0x67e
                    0x067e                  _ANSB = 0x67e
                    0x067e                  _ANSBbits = 0x67e
                    0x067e                  ANSELB = 0x67e
                    0x067e                  _ANSELB = 0x67e
                    0x067e                  _ANSELBbits = 0x67e
                    0x0680                  IOCPB = 0x680
                    0x0680                  _IOCPB = 0x680
                    0x0680                  _IOCPBbits = 0x680
                    0x0682                  IOCNB = 0x682
                    0x0682                  _IOCNB = 0x682
                    0x0682                  _IOCNBbits = 0x682
                    0x0684                  IOCFB = 0x684
                    0x0684                  _IOCFB = 0x684
                    0x0684                  _IOCFBbits = 0x684
                    0x0686                  CNPUB = 0x686
                    0x0686                  _CNPUB = 0x686
                    0x0686                  _CNPUBbits = 0x686
                    0x0686                  IOCPUB = 0x686
                    0x0686                  _IOCPUB = 0x686
                    0x0686                  _IOCPUBbits = 0x686
                    0x0688                  CNPDB = 0x688
                    0x0688                  _CNPDB = 0x688
                    0x0688                  _CNPDBbits = 0x688
                    0x0688                  IOCPDB = 0x688
                    0x0688                  _IOCPDB = 0x688
                    0x0688                  _IOCPDBbits = 0x688
                    0x068a                  TRISC = 0x68a
                    0x068a                  _TRISC = 0x68a
                    0x068a                  _TRISCbits = 0x68a
                    0x068c                  PORTC = 0x68c
                    0x068c                  _PORTC = 0x68c
                    0x068c                  _PORTCbits = 0x68c
                    0x068e                  LATC = 0x68e
                    0x068e                  _LATC = 0x68e
                    0x068e                  _LATCbits = 0x68e
                    0x0690                  ODCC = 0x690
                    0x0690                  _ODCC = 0x690
                    0x0690                  _ODCCbits = 0x690
                    0x0692                  ANSC = 0x692
                    0x0692                  _ANSC = 0x692
                    0x0692                  _ANSCbits = 0x692
                    0x0692                  ANSELC = 0x692
                    0x0692                  _ANSELC = 0x692
                    0x0692                  _ANSELCbits = 0x692
                    0x0694                  IOCPC = 0x694
                    0x0694                  _IOCPC = 0x694
                    0x0694                  _IOCPCbits = 0x694
                    0x0696                  IOCNC = 0x696
                    0x0696                  _IOCNC = 0x696
                    0x0696                  _IOCNCbits = 0x696
                    0x0698                  IOCFC = 0x698
                    0x0698                  _IOCFC = 0x698
                    0x0698                  _IOCFCbits = 0x698
                    0x069a                  CNPUC = 0x69a
                    0x069a                  _CNPUC = 0x69a
                    0x069a                  _CNPUCbits = 0x69a
                    0x069a                  IOCPUC = 0x69a
                    0x069a                  _IOCPUC = 0x69a
                    0x069a                  _IOCPUCbits = 0x69a
                    0x069c                  CNPDC = 0x69c
                    0x069c                  _CNPDC = 0x69c
                    0x069c                  _CNPDCbits = 0x69c
                    0x069c                  IOCPDC = 0x69c
                    0x069c                  _IOCPDC = 0x69c
                    0x069c                  _IOCPDCbits = 0x69c
                    0x0712                  ADC1BUF0 = 0x712
                    0x0712                  _ADC1BUF0 = 0x712
                    0x0714                  ADC1BUF1 = 0x714
                    0x0714                  _ADC1BUF1 = 0x714
                    0x0716                  ADC1BUF2 = 0x716
                    0x0716                  _ADC1BUF2 = 0x716
                    0x0718                  ADC1BUF3 = 0x718
                    0x0718                  _ADC1BUF3 = 0x718
                    0x071a                  ADC1BUF4 = 0x71a
                    0x071a                  _ADC1BUF4 = 0x71a
                    0x071c                  ADC1BUF5 = 0x71c
                    0x071c                  _ADC1BUF5 = 0x71c
                    0x071e                  ADC1BUF6 = 0x71e
                    0x071e                  _ADC1BUF6 = 0x71e
                    0x0720                  ADC1BUF7 = 0x720
                    0x0720                  _ADC1BUF7 = 0x720
                    0x0722                  ADC1BUF8 = 0x722
                    0x0722                  _ADC1BUF8 = 0x722
                    0x0724                  ADC1BUF9 = 0x724
                    0x0724                  _ADC1BUF9 = 0x724
                    0x0726                  ADC1BUF10 = 0x726
                    0x0726                  _ADC1BUF10 = 0x726
                    0x0728                  ADC1BUF11 = 0x728
                    0x0728                  _ADC1BUF11 = 0x728
                    0x072a                  ADC1BUF12 = 0x72a
                    0x072a                  _ADC1BUF12 = 0x72a
                    0x072c                  ADC1BUF13 = 0x72c
                    0x072c                  _ADC1BUF13 = 0x72c
                    0x072e                  ADC1BUF14 = 0x72e
                    0x072e                  _ADC1BUF14 = 0x72e
                    0x0730                  ADC1BUF15 = 0x730
                    0x0730                  _ADC1BUF15 = 0x730
                    0x0746                  AD1CON1 = 0x746
                    0x0746                  _AD1CON1 = 0x746
                    0x0746                  _AD1CON1bits = 0x746
                    0x0748                  AD1CON2 = 0x748
                    0x0748                  _AD1CON2 = 0x748
                    0x0748                  _AD1CON2bits = 0x748
                    0x074a                  AD1CON3 = 0x74a
                    0x074a                  _AD1CON3 = 0x74a
                    0x074a                  _AD1CON3bits = 0x74a
                    0x074c                  AD1CHS = 0x74c
                    0x074c                  _AD1CHS = 0x74c
                    0x074c                  _AD1CHSbits = 0x74c
                    0x074c                  AD1CHS0 = 0x74c
                    0x074c                  _AD1CHS0 = 0x74c
                    0x074c                  _AD1CHS0bits = 0x74c
                    0x074e                  AD1CSSH = 0x74e
                    0x074e                  _AD1CSSH = 0x74e
                    0x074e                  _AD1CSSHbits = 0x74e
                    0x0750                  AD1CSSL = 0x750
                    0x0750                  _AD1CSSL = 0x750
                    0x0750                  _AD1CSSLbits = 0x750
                    0x0752                  AD1CON4 = 0x752
                    0x0752                  _AD1CON4 = 0x752
                    0x0752                  _AD1CON4bits = 0x752
                    0x0754                  AD1CON5 = 0x754
                    0x0754                  _AD1CON5 = 0x754
                    0x0754                  _AD1CON5bits = 0x754
                    0x0758                  AD1CHITL = 0x758
                    0x0758                  _AD1CHITL = 0x758
                    0x0758                  _AD1CHITLbits = 0x758
                    0x075a                  AD1CTMENH = 0x75a
                    0x075a                  _AD1CTMENH = 0x75a
                    0x075a                  _AD1CTMENHbits = 0x75a
                    0x075c                  AD1CTMENL = 0x75c
                    0x075c                  _AD1CTMENL = 0x75c
                    0x075c                  _AD1CTMENLbits = 0x75c
                    0x075e                  AD1RESDMA = 0x75e
                    0x075e                  _AD1RESDMA = 0x75e
                    0x075e                  _AD1RESDMAbits = 0x75e
                    0x0760                  NVMCON = 0x760
                    0x0760                  _NVMCON = 0x760
                    0x0760                  _NVMCONbits = 0x760
                    0x0762                  NVMADR = 0x762
                    0x0762                  _NVMADR = 0x762
                    0x0762                  _NVMADRbits = 0x762
                    0x0762                  NVMADRL = 0x762
                    0x0762                  _NVMADRL = 0x762
                    0x0762                  _NVMADRLbits = 0x762
                    0x0764                  NVMADRH = 0x764
                    0x0764                  _NVMADRH = 0x764
                    0x0764                  _NVMADRHbits = 0x764
                    0x0764                  NVMADRU = 0x764
                    0x0764                  _NVMADRU = 0x764
                    0x0764                  _NVMADRUbits = 0x764
                    0x0766                  NVMKEY = 0x766
                    0x0766                  _NVMKEY = 0x766
                    0x0790                  RPINR0 = 0x790
                    0x0790                  _RPINR0 = 0x790
                    0x0790                  _RPINR0bits = 0x790
                    0x0792                  RPINR1 = 0x792
                    0x0792                  _RPINR1 = 0x792
                    0x0792                  _RPINR1bits = 0x792
                    0x0794                  RPINR2 = 0x794
                    0x0794                  _RPINR2 = 0x794
                    0x0794                  _RPINR2bits = 0x794
                    0x0796                  RPINR3 = 0x796
                    0x0796                  _RPINR3 = 0x796
                    0x0796                  _RPINR3bits = 0x796
                    0x079a                  RPINR5 = 0x79a
                    0x079a                  _RPINR5 = 0x79a
                    0x079a                  _RPINR5bits = 0x79a
                    0x079c                  RPINR6 = 0x79c
                    0x079c                  _RPINR6 = 0x79c
                    0x079c                  _RPINR6bits = 0x79c
                    0x079e                  RPINR7 = 0x79e
                    0x079e                  _RPINR7 = 0x79e
                    0x079e                  _RPINR7bits = 0x79e
                    0x07a0                  RPINR8 = 0x7a0
                    0x07a0                  _RPINR8 = 0x7a0
                    0x07a0                  _RPINR8bits = 0x7a0
                    0x07a6                  RPINR11 = 0x7a6
                    0x07a6                  _RPINR11 = 0x7a6
                    0x07a6                  _RPINR11bits = 0x7a6
                    0x07a8                  RPINR12 = 0x7a8
                    0x07a8                  _RPINR12 = 0x7a8
                    0x07a8                  _RPINR12bits = 0x7a8
                    0x07b4                  RPINR18 = 0x7b4
                    0x07b4                  _RPINR18 = 0x7b4
                    0x07b4                  _RPINR18bits = 0x7b4
                    0x07b6                  RPINR19 = 0x7b6
                    0x07b6                  _RPINR19 = 0x7b6
                    0x07b6                  _RPINR19bits = 0x7b6
                    0x07b8                  RPINR20 = 0x7b8
                    0x07b8                  _RPINR20 = 0x7b8
                    0x07b8                  _RPINR20bits = 0x7b8
                    0x07ba                  RPINR21 = 0x7ba
                    0x07ba                  _RPINR21 = 0x7ba
                    0x07ba                  _RPINR21bits = 0x7ba
                    0x07bc                  RPINR22 = 0x7bc
                    0x07bc                  _RPINR22 = 0x7bc
                    0x07bc                  _RPINR22bits = 0x7bc
                    0x07be                  RPINR23 = 0x7be
                    0x07be                  _RPINR23 = 0x7be
                    0x07be                  _RPINR23bits = 0x7be
                    0x07c2                  RPINR25 = 0x7c2
                    0x07c2                  _RPINR25 = 0x7c2
                    0x07c2                  _RPINR25bits = 0x7c2
                    0x07c8                  RPINR28 = 0x7c8
                    0x07c8                  _RPINR28 = 0x7c8
                    0x07c8                  _RPINR28bits = 0x7c8
                    0x07ca                  RPINR29 = 0x7ca
                    0x07ca                  _RPINR29 = 0x7ca
                    0x07ca                  _RPINR29bits = 0x7ca
                    0x07d4                  RPOR0 = 0x7d4
                    0x07d4                  _RPOR0 = 0x7d4
                    0x07d4                  _RPOR0bits = 0x7d4
                    0x07d6                  RPOR1 = 0x7d6
                    0x07d6                  _RPOR1 = 0x7d6
                    0x07d6                  _RPOR1bits = 0x7d6
                    0x07d8                  RPOR2 = 0x7d8
                    0x07d8                  _RPOR2 = 0x7d8
                    0x07d8                  _RPOR2bits = 0x7d8
                    0x07da                  RPOR3 = 0x7da
                    0x07da                  _RPOR3 = 0x7da
                    0x07da                  _RPOR3bits = 0x7da
                    0x07dc                  RPOR4 = 0x7dc
                    0x07dc                  _RPOR4 = 0x7dc
                    0x07dc                  _RPOR4bits = 0x7dc
                    0x07de                  RPOR5 = 0x7de
                    0x07de                  _RPOR5 = 0x7de
                    0x07de                  _RPOR5bits = 0x7de
                    0x07e0                  RPOR6 = 0x7e0
                    0x07e0                  _RPOR6 = 0x7e0
                    0x07e0                  _RPOR6bits = 0x7e0
                    0x07e2                  RPOR7 = 0x7e2
                    0x07e2                  _RPOR7 = 0x7e2
                    0x07e2                  _RPOR7bits = 0x7e2
                    0x07e4                  RPOR8 = 0x7e4
                    0x07e4                  _RPOR8 = 0x7e4
                    0x07e4                  _RPOR8bits = 0x7e4
                    0x07e6                  RPOR9 = 0x7e6
                    0x07e6                  _RPOR9 = 0x7e6
                    0x07e6                  _RPOR9bits = 0x7e6
                    0x07e8                  RPOR10 = 0x7e8
                    0x07e8                  _RPOR10 = 0x7e8
                    0x07e8                  _RPOR10bits = 0x7e8
                    0x07ea                  RPOR11 = 0x7ea
                    0x07ea                  _RPOR11 = 0x7ea
                    0x07ea                  _RPOR11bits = 0x7ea
                    0x07ec                  RPOR12 = 0x7ec
                    0x07ec                  _RPOR12 = 0x7ec
                    0x07ec                  _RPOR12bits = 0x7ec
                    0x07ee                  RPOR13 = 0x7ee
                    0x07ee                  _RPOR13 = 0x7ee
                    0x07ee                  _RPOR13bits = 0x7ee
                    0x07f0                  RPOR14 = 0x7f0
                    0x07f0                  _RPOR14 = 0x7f0
                    0x07f0                  _RPOR14bits = 0x7f0
                    0x0204                  IC1 = 0x204
                    0x0204                  _IC1 = 0x204
                    0x020c                  IC2 = 0x20c
                    0x020c                  _IC2 = 0x20c
                    0x0214                  IC3 = 0x214
                    0x0214                  _IC3 = 0x214
                    0x0234                  OC1 = 0x234
                    0x0234                  _OC1 = 0x234
                    0x023e                  OC2 = 0x23e
                    0x023e                  _OC2 = 0x23e
                    0x0248                  OC3 = 0x248
                    0x0248                  _OC3 = 0x248
                    0x0398                  UART1 = 0x398
                    0x0398                  _UART1 = 0x398
                    0x03ae                  UART2 = 0x3ae
                    0x03ae                  _UART2 = 0x3ae
START GROUP
LOAD c:/program files/microchip/xc16/v2.10/bin/bin/../../lib\libc99-pic30-elf.a
LOAD c:/program files/microchip/xc16/v2.10/bin/bin/../../lib\libm-elf.a
LOAD c:/program files/microchip/xc16/v2.10/bin/bin/../../lib\libc99-elf.a
END GROUP
OUTPUT(dist/default/production/CuriosityOledBase.X.production.elf elf32-pic30)
LOAD /CW/_FSEC
LOAD jump_table
LOAD default_isr
LOAD data_init

.debug_pubtypes
                  0x0004e8       0x156e
 .debug_pubtypes
                  0x0004e8         0x7d build/default/production/accel3Driver/ACCEL3.o
 .debug_pubtypes
                  0x000565         0xdd build/default/production/adcDriver/ADC.o
 .debug_pubtypes
                  0x000642         0xa4 build/default/production/i2cDriver/I2C.o
 .debug_pubtypes
                  0x0006e6        0x196 build/default/production/ledDriver/LED_tests.o
 .debug_pubtypes
                  0x00087c        0x11b build/default/production/oledDriver/oledC.o
 .debug_pubtypes
                  0x000997         0x84 build/default/production/oledDriver/oledC_shapeHandler.o
 .debug_pubtypes
                  0x000a1b         0x9b build/default/production/oledDriver/oledC_shapes.o
 .debug_pubtypes
                  0x000ab6         0xd9 build/default/production/spiDriver/spi1_driver.o
 .debug_pubtypes
                  0x000b8f         0x3f build/default/production/switchDriver/Switch.o
 .debug_pubtypes
                  0x000bce         0x2b build/default/production/System/clock.o
 .debug_pubtypes
                  0x000bf9         0x1f build/default/production/System/delay.o
 .debug_pubtypes
                  0x000c18         0x5f build/default/production/System/interrupt_manager.o
 .debug_pubtypes
                  0x000c77         0x7e build/default/production/System/pin_manager.o
 .debug_pubtypes
                  0x000cf5         0x42 build/default/production/System/system.o
 .debug_pubtypes
                  0x000d37         0x71 build/default/production/System/traps.o
 .debug_pubtypes
                  0x000da8         0xc4 build/default/production/WatchApp/pomodoroTimer/pomodoro.o
 .debug_pubtypes
                  0x000e6c         0xc4 build/default/production/WatchApp/shared/watch_state.o
 .debug_pubtypes
                  0x000f30         0xc4 build/default/production/WatchApp/watchCore/alarm.o
 .debug_pubtypes
                  0x000ff4         0xd1 build/default/production/WatchApp/watchCore/timekeeper.o
 .debug_pubtypes
                  0x0010c5         0xcf build/default/production/WatchApp/watchFaces/analog_face.o
 .debug_pubtypes
                  0x001194         0xd1 build/default/production/WatchApp/watchFaces/binary_face.o
 .debug_pubtypes
                  0x001265         0xc4 build/default/production/WatchApp/watchFaces/digital_face.o
 .debug_pubtypes
                  0x001329         0x54 build/default/production/WatchApp/watchInput/accel_input.o
 .debug_pubtypes
                  0x00137d         0x50 build/default/production/WatchApp/watchInput/buttons.o
 .debug_pubtypes
                  0x0013cd         0x7f build/default/production/WatchApp/watchInput/potentiometer.o
 .debug_pubtypes
                  0x00144c         0xfd build/default/production/WatchApp/watchMenu/menu.o
 .debug_pubtypes
                  0x001549         0xea build/default/production/Timers/Timers.o
 .debug_pubtypes
                  0x001633         0x41 build/default/production/WatchApp/app_init.o
 .debug_pubtypes
                  0x001674         0xc4 build/default/production/WatchApp/watchManagers/app_display_manager.o
 .debug_pubtypes
                  0x001738         0xe7 build/default/production/WatchApp/watchManagers/app_input_handler.o
 .debug_pubtypes
                  0x00181f         0xd1 build/default/production/WatchApp/watchManagers/app_time_manager.o
 .debug_pubtypes
                  0x0018f0         0x4f build/default/production/WatchApp/watch_main.o
 .debug_pubtypes
                  0x00193f         0xc4 build/default/production/WatchApp/watchFaces/alarm_face.o
 .debug_pubtypes
                  0x001a03         0x36 build/default/production/WatchApp/watchFaces/watch_face_common.o
 .debug_pubtypes
                  0x001a39         0x1d build/default/production/WatchApp/watchFaces/watch_face_geometry.o

__c30_signature
                  0x001a56        0x19e
 __c30_signature
                  0x001a56          0x6 build/default/production/accel3Driver/ACCEL3.o
 __c30_signature
                  0x001a5c          0x6 build/default/production/adcDriver/ADC.o
 __c30_signature
                  0x001a62          0x6 build/default/production/i2cDriver/I2C.o
 __c30_signature
                  0x001a68          0x6 build/default/production/ledDriver/LED_tests.o
 __c30_signature
                  0x001a6e          0x6 build/default/production/oledDriver/oledC.o
 __c30_signature
                  0x001a74          0x6 build/default/production/oledDriver/oledC_shapeHandler.o
 __c30_signature
                  0x001a7a          0x6 build/default/production/oledDriver/oledC_shapes.o
 __c30_signature
                  0x001a80          0x6 build/default/production/spiDriver/spi1_driver.o
 __c30_signature
                  0x001a86          0x6 build/default/production/switchDriver/Switch.o
 __c30_signature
                  0x001a8c          0x6 build/default/production/System/clock.o
 __c30_signature
                  0x001a92          0x6 build/default/production/System/delay.o
 __c30_signature
                  0x001a98          0x6 build/default/production/System/interrupt_manager.o
 __c30_signature
                  0x001a9e          0x6 build/default/production/System/pin_manager.o
 __c30_signature
                  0x001aa4          0x6 build/default/production/System/system.o
 __c30_signature
                  0x001aaa          0x6 build/default/production/System/traps.o
 __c30_signature
                  0x001ab0          0x6 build/default/production/WatchApp/pomodoroTimer/pomodoro.o
 __c30_signature
                  0x001ab6          0x6 build/default/production/WatchApp/shared/watch_state.o
 __c30_signature
                  0x001abc          0x6 build/default/production/WatchApp/watchCore/alarm.o
 __c30_signature
                  0x001ac2          0x6 build/default/production/WatchApp/watchCore/timekeeper.o
 __c30_signature
                  0x001ac8          0x6 build/default/production/WatchApp/watchFaces/analog_face.o
 __c30_signature
                  0x001ace          0x6 build/default/production/WatchApp/watchFaces/binary_face.o
 __c30_signature
                  0x001ad4          0x6 build/default/production/WatchApp/watchFaces/digital_face.o
 __c30_signature
                  0x001ada          0x6 build/default/production/WatchApp/watchInput/accel_input.o
 __c30_signature
                  0x001ae0          0x6 build/default/production/WatchApp/watchInput/buttons.o
 __c30_signature
                  0x001ae6          0x6 build/default/production/WatchApp/watchInput/potentiometer.o
 __c30_signature
                  0x001aec          0x6 build/default/production/WatchApp/watchMenu/menu.o
 __c30_signature
                  0x001af2          0x6 build/default/production/Timers/Timers.o
 __c30_signature
                  0x001af8          0x6 build/default/production/WatchApp/app_init.o
 __c30_signature
                  0x001afe          0x6 build/default/production/WatchApp/watchManagers/app_display_manager.o
 __c30_signature
                  0x001b04          0x6 build/default/production/WatchApp/watchManagers/app_input_handler.o
 __c30_signature
                  0x001b0a          0x6 build/default/production/WatchApp/watchManagers/app_time_manager.o
 __c30_signature
                  0x001b10          0x6 build/default/production/main.o
 __c30_signature
                  0x001b16          0x6 build/default/production/WatchApp/watch_main.o
 __c30_signature
                  0x001b1c          0x6 build/default/production/WatchApp/watchFaces/alarm_face.o
 __c30_signature
                  0x001b22          0x6 build/default/production/WatchApp/watchFaces/watch_face_common.o
 __c30_signature
                  0x001b28          0x6 build/default/production/WatchApp/watchFaces/watch_face_geometry.o
 __c30_signature
                  0x001b2e          0x6 c:/program files/microchip/xc16/v2.10/bin/bin/../../lib\libc99-pic30-elf.a(crt0_extended24.o)
 __c30_signature
                  0x001b34          0x6 c:/program files/microchip/xc16/v2.10/bin/bin/../../lib\libc99-pic30-elf.a(data_init_24.o)
 __c30_signature
                  0x001b3a          0x6 c:/program files/microchip/xc16/v2.10/bin/bin/../../lib\libc99-pic30-elf.a(delay32da.Meo)
 __c30_signature
                  0x001b40          0x6 c:/program files/microchip/xc16/v2.10/bin/bin/../../lib\libc99-pic30-elf.a(floatunsisf.DA_o)
 __c30_signature
                  0x001b46          0x6 c:/program files/microchip/xc16/v2.10/bin/bin/../../lib\libc99-pic30-elf.a(udivsi3.DA_o)
 __c30_signature
                  0x001b4c          0x6 c:/program files/microchip/xc16/v2.10/bin/bin/../../lib\libc99-pic30-elf.a(umodsi3.DA_o)
 __c30_signature
                  0x001b52          0x6 c:/program files/microchip/xc16/v2.10/bin/bin/../../lib\libc99-pic30-elf.a(errno.DA_o)
 __c30_signature
                  0x001b58          0x6 c:/program files/microchip/xc16/v2.10/bin/bin/../../lib\libc99-pic30-elf.a(floatundisf.DA_o)
 __c30_signature
                  0x001b5e          0x6 c:/program files/microchip/xc16/v2.10/bin/bin/../../lib\libc99-pic30-elf.a(fpack.DA_o)
 __c30_signature
                  0x001b64          0x6 c:/program files/microchip/xc16/v2.10/bin/bin/../../lib\libc99-elf.a(__sio_sprintf_doux.DA_o)
 __c30_signature
                  0x001b6a          0x6 c:/program files/microchip/xc16/v2.10/bin/bin/../../lib\libc99-elf.a(memset.DA_o)
 __c30_signature
                  0x001b70          0x6 c:/program files/microchip/xc16/v2.10/bin/bin/../../lib\libc99-elf.a(strlen.DA_o)
 __c30_signature
                  0x001b76          0x6 c:/program files/microchip/xc16/v2.10/bin/bin/../../lib\libc99-elf.a(__fmt_d.DA_o)
 __c30_signature
                  0x001b7c          0x6 c:/program files/microchip/xc16/v2.10/bin/bin/../../lib\libc99-elf.a(__fmt_o.DA_o)
 __c30_signature
                  0x001b82          0x6 c:/program files/microchip/xc16/v2.10/bin/bin/../../lib\libc99-elf.a(__fmt_s.DA_o)
 __c30_signature
                  0x001b88          0x6 c:/program files/microchip/xc16/v2.10/bin/bin/../../lib\libc99-elf.a(__fmt_u.DA_o)
 __c30_signature
                  0x001b8e          0x6 c:/program files/microchip/xc16/v2.10/bin/bin/../../lib\libc99-elf.a(__fmt_x.DA_o)
 __c30_signature
                  0x001b94          0x6 c:/program files/microchip/xc16/v2.10/bin/bin/../../lib\libc99-elf.a(__int_vsprintf.DA_o)
 __c30_signature
                  0x001b9a          0x6 c:/program files/microchip/xc16/v2.10/bin/bin/../../lib\libc99-elf.a(__pop_int.DA_o)
 __c30_signature
                  0x001ba0          0x6 c:/program files/microchip/xc16/v2.10/bin/bin/../../lib\libc99-elf.a(__pop_ptr.DA_o)
 __c30_signature
                  0x001ba6          0x6 c:/program files/microchip/xc16/v2.10/bin/bin/../../lib\libc99-elf.a(__printf_core.DA_o)
 __c30_signature
                  0x001bac          0x6 c:/program files/microchip/xc16/v2.10/bin/bin/../../lib\libc99-elf.a(atoi.DA_o)
 __c30_signature
                  0x001bb2          0x6 c:/program files/microchip/xc16/v2.10/bin/bin/../../lib\libc99-elf.a(memcpy.DA_o)
 __c30_signature
                  0x001bb8          0x6 c:/program files/microchip/xc16/v2.10/bin/bin/../../lib\libc99-elf.a(tolower.DA_o)
 __c30_signature
                  0x001bbe          0x6 c:/program files/microchip/xc16/v2.10/bin/bin/../../lib\libc99-elf.a(toupper.DA_o)
 __c30_signature
                  0x001bc4          0x6 c:/program files/microchip/xc16/v2.10/bin/bin/../../lib\libc99-elf.a(__errno_location.DA_o)
 __c30_signature
                  0x001bca          0x6 c:/program files/microchip/xc16/v2.10/bin/bin/../../lib\libc99-elf.a(__int_vsnprintf.DA_o)
 __c30_signature
                  0x001bd0          0x6 c:/program files/microchip/xc16/v2.10/bin/bin/../../lib\libc99-elf.a(__pop_float.DA_o)
 __c30_signature
                  0x001bd6          0x6 c:/program files/microchip/xc16/v2.10/bin/bin/../../lib\libc99-elf.a(__int_vfprintf.DA_o)
 __c30_signature
                  0x001bdc          0x6 c:/program files/microchip/xc16/v2.10/bin/bin/../../lib\libc99-pic30-elf.a(extendsfdf.DA_o)
 __c30_signature
                  0x001be2          0x6 c:/program files/microchip/xc16/v2.10/bin/bin/../../lib\libc99-pic30-elf.a(funpack.DA_o)
 __c30_signature
                  0x001be8          0x6 c:/program files/microchip/xc16/v2.10/bin/bin/../../lib\libc99-pic30-elf.a(mulsi3.DA_o)
 __c30_signature
                  0x001bee          0x6 c:/program files/microchip/xc16/v2.10/bin/bin/../../lib\libc99-pic30-elf.a(divmoddi3.DA_o)

.nbss               0x0800         0x28
 .nbss              0x0800         0x10 build/default/production/WatchApp/watchInput/buttons.o
 .nbss              0x0810          0xc build/default/production/WatchApp/watchInput/accel_input.o
 .nbss              0x081c          0x8 build/default/production/Timers/Timers.o
                    0x081c                  _t1_ticks
                    0x0820                  _t2_ticks
 .nbss              0x0824          0x4 build/default/production/oledDriver/oledC.o

System/where_was_i.s.scn1
                    0x0828          0x4
 System/where_was_i.s.scn1
                    0x0828          0x4 build/default/production/System/where_was_i.o
                    0x0828                  _trapSrcAddr

.nbss               0x082c          0x4
 .nbss              0x082c          0x4 build/default/production/WatchApp/watchCore/timekeeper.o

.ndata              0x0830          0x4
 .ndata             0x0830          0x4 build/default/production/WatchApp/watchFaces/analog_face.o

.nbss               0x0834          0xc
 .nbss              0x0834          0x4 build/default/production/WatchApp/watchFaces/digital_face.o
 .nbss              0x0838          0x4 build/default/production/WatchApp/watchInput/potentiometer.o
 .nbss              0x083c          0x2 build/default/production/accel3Driver/ACCEL3.o
 .nbss              0x083e          0x2 build/default/production/adcDriver/ADC.o

.ndata              0x0840          0x2
 .ndata             0x0840          0x2 build/default/production/ledDriver/LED_tests.o

.nbss               0x0842          0x2
 .nbss              0x0842          0x2 build/default/production/spiDriver/spi1_driver.o
                    0x0842                  _spi1_interruptHandler

.ndata              0x0844          0x4
 .ndata             0x0844          0x2 build/default/production/System/traps.o
 .ndata             0x0846          0x2 build/default/production/WatchApp/watchFaces/binary_face.o

.nbss               0x0848          0x2
 .nbss              0x0848          0x2 build/default/production/WatchApp/watchFaces/binary_face.o

.ndata              0x084a          0x4
 .ndata             0x084a          0x2 build/default/production/WatchApp/watchInput/accel_input.o
 .ndata             0x084c          0x2 build/default/production/WatchApp/watchInput/potentiometer.o

.nbss               0x084e          0x2
 .nbss              0x084e          0x2 build/default/production/WatchApp/watchMenu/menu.o

.ndata              0x0850          0x2
 .ndata             0x0850          0x2 build/default/production/WatchApp/watchMenu/menu.o

.nbss               0x0852          0x4
 .nbss              0x0852          0x2 build/default/production/WatchApp/watchFaces/alarm_face.o
 .nbss              0x0854          0x2 c:/program files/microchip/xc16/v2.10/bin/bin/../../lib\libc99-pic30-elf.a(errno.DA_o)
                    0x0854                  _errno

.bss                0x0856        0x278
 .bss               0x0856        0x200 build/default/production/oledDriver/oledC_shapeHandler.o
 .bss               0x0a56         0x34 build/default/production/WatchApp/watchFaces/binary_face.o
 .bss               0x0a8a         0x24 build/default/production/WatchApp/shared/watch_state.o
 .bss               0x0aae         0x20 build/default/production/System/traps.o

.data               0x0ace         0x36
 .data              0x0ace         0x1e c:/program files/microchip/xc16/v2.10/bin/bin/../../lib\libc99-elf.a(__printf_core.DA_o)
 .data              0x0aec         0x18 build/default/production/WatchApp/watchMenu/menu.o

.bss                0x0b04         0x36
 .bss               0x0b04          0xc build/default/production/switchDriver/Switch.o
 .bss               0x0b10          0xa build/default/production/adcDriver/ADC.o
 .bss               0x0b1a          0xa build/default/production/WatchApp/watchMenu/menu.o
 .bss               0x0b24          0x6 build/default/production/i2cDriver/I2C.o
 .bss               0x0b2a          0x6 build/default/production/WatchApp/watchCore/timekeeper.o
 .bss               0x0b30          0x6 build/default/production/WatchApp/watchFaces/digital_face.o
 .bss               0x0b36          0x2 build/default/production/WatchApp/watchFaces/analog_face.o
 .bss               0x0b38          0x2 c:/program files/microchip/xc16/v2.10/bin/bin/../../lib\libc99-elf.a(__errno_location.DA_o)
                    0x0b38                  ___errno_val

.config_ALTI2C1
                  0x02af2c          0x2
 .config_ALTI2C1
                  0x02af2c          0x2 build/default/production/System/system.o

.config_JTAGEN    0x02af28          0x2
 .config_JTAGEN
                  0x02af28          0x2 build/default/production/System/system.o

.config_DNVPEN    0x02af24          0x2
 .config_DNVPEN
                  0x02af24          0x2 build/default/production/System/system.o

.config_WDTCLK    0x02af20          0x2
 .config_WDTCLK
                  0x02af20          0x2 build/default/production/System/system.o

.config_FCKSM     0x02af1c          0x2
 .config_FCKSM    0x02af1c          0x2 build/default/production/System/system.o

.config_IESO      0x02af18          0x2
 .config_IESO     0x02af18          0x2 build/default/production/System/system.o

.config_BSLIM     0x02af10          0x2
 .config_BSLIM    0x02af10          0x2 build/default/production/System/system.o

.ivt._OscillatorFail
                  0x000004          0x2
 .ivt._OscillatorFail
                  0x000004          0x2 build/default/production/System/traps.o

.ivt._StackError
                  0x00000a          0x2
 .ivt._StackError
                  0x00000a          0x2 build/default/production/System/traps.o

.ivt._AddressError
                  0x000006          0x2
 .ivt._AddressError
                  0x000006          0x2 build/default/production/System/traps.o

.ivt._MathError
                  0x00000c          0x2
 .ivt._MathError
                  0x00000c          0x2 build/default/production/System/traps.o

.ivt._NVMError    0x000008          0x2
 .ivt._NVMError
                  0x000008          0x2 build/default/production/System/traps.o

.ivt._T1Interrupt
                  0x00001a          0x2
 .ivt._T1Interrupt
                  0x00001a          0x2 build/default/production/Timers/Timers.o

.ivt._T2Interrupt
                  0x000022          0x2
 .ivt._T2Interrupt
                  0x000022          0x2 build/default/production/Timers/Timers.o

.const              0x9440        0x5bc load address 0x001440  
 .const             0x9440        0x1e0 build/default/production/oledDriver/oledC_shapes.o
 .const             0x9620        0x1c2 build/default/production/WatchApp/watchMenu/menu.o
                    0x974c                  _main_menu
 .const             0x97e2        0x168 build/default/production/WatchApp/watchFaces/watch_face_geometry.o
                    0x97e2                  _HOUR_POINTS
                    0x985a                  _MIN_POINTS
                    0x98d2                  _SEC_POINTS
 .const             0x994a         0x34 build/default/production/ledDriver/LED_tests.o
 .const             0x997e         0x2e build/default/production/WatchApp/pomodoroTimer/pomodoro.o
 .const             0x99ac         0x20 build/default/production/WatchApp/watchFaces/binary_face.o
 .const             0x99cc          0xe build/default/production/WatchApp/watchFaces/digital_face.o
 .const             0x99da          0xc build/default/production/spiDriver/spi1_driver.o
 .const             0x99e6          0xc build/default/production/WatchApp/watchCore/timekeeper.o
 .const             0x99f2          0xa build/default/production/WatchApp/watchFaces/watch_face_common.o

.text             0x0019fc       0x385e
 .text            0x0019fc        0x8de build/default/production/oledDriver/oledC_shapes.o
                  0x0019fc                  _oledC_createShape
                  0x001b2c                  _oledC_ReadPoint
                  0x001b5c                  _oledC_DrawPoint
                  0x001b94                  _oledC_DrawThickPoint
                  0x001c9c                  _oledC_DrawCircle
                  0x001dae                  _oledC_DrawRing
                  0x001eaa                  _oledC_DrawLine
                  0x001fbc                  _oledC_DrawRectangle
                  0x00200a                  _oledC_DrawCharacter
                  0x0020c8                  _oledC_DrawString
                  0x00210e                  _oledC_DrawBitmap
                  0x0021e2                  build/default/production/oledDriver/oledC_shapes.o:_drawPoint
                  0x0021f8                  build/default/production/oledDriver/oledC_shapes.o:_drawCircle
                  0x002212                  build/default/production/oledDriver/oledC_shapes.o:_drawRing
                  0x002230                  build/default/production/oledDriver/oledC_shapes.o:_drawRectangle
                  0x00224e                  build/default/production/oledDriver/oledC_shapes.o:_drawLine
                  0x002270                  build/default/production/oledDriver/oledC_shapes.o:_drawCharacter
                  0x002292                  build/default/production/oledDriver/oledC_shapes.o:_drawString
                  0x0022b4                  build/default/production/oledDriver/oledC_shapes.o:_drawBitmap
 .text            0x0022da        0x7e2 build/default/production/ledDriver/LED_tests.o
                  0x00241c                  _test_discrete_leds
                  0x002498                  _test_rgb_raw_pwm
                  0x0024f2                  _test_rgb_color_constants
                  0x002594                  _test_rgb_intensity_scaling
                  0x00264e                  _test_raw_vs_scaled
                  0x00269e                  _test_rgb_intensity_fade
                  0x002762                  _test_rgb_color_wheel
                  0x002828                  _test_rgb_edge_cases
                  0x002882                  _test_custom_colors
                  0x0028fa                  _test_rainbow_sequence
                  0x002952                  _test_intensity_persistence
                  0x0029c8                  _LED_RunTests
 .text            0x002abc        0x696 build/default/production/WatchApp/watchMenu/menu.o
                  0x002f7c                  _Menu_Init
                  0x002f94                  _Menu_Enter
                  0x002fb6                  _Menu_Exit
                  0x002fcc                  _Menu_HandleInput
                  0x003050                  _Menu_DrawFull
                  0x0030e2                  _Menu_DrawPartial
 .text            0x003152        0x38c build/default/production/WatchApp/watchFaces/binary_face.o
                  0x0031dc                  _BinaryFace_Init
                  0x0032e6                  _BinaryFace_Draw
                  0x0032ee                  _BinaryFace_DrawUpdate
 .text            0x0034de        0x2f6 build/default/production/i2cDriver/I2C.o
                  0x0034de                  _i2c_init
                  0x0036ee                  _i2c_writeReg
                  0x003734                  _i2c_readRegs
                  0x0037be                  _i2c_readReg
 .text            0x0037d4        0x2e0 build/default/production/oledDriver/oledC.o
                  0x003870                  _oledC_parseIntToRGB
                  0x0038be                  _oledC_parseRGBToInt
                  0x003908                  _oledC_sendCommand
                  0x003946                  _oledC_setRowAddressBounds
                  0x003970                  _oledC_setColumnAddressBounds
                  0x0039a6                  _oledC_setSleepMode
                  0x0039c0                  _oledC_readColor
                  0x0039de                  _oledC_sendColor
                  0x0039f4                  _oledC_sendColorInt
                  0x003a1a                  _oledC_open
                  0x003a22                  _oledC_setup
                  0x003a64                  _oledC_clearScreen
                  0x003a9e                  _oledC_setBackground
                  0x003aac                  _oledC_getBackground
 .text            0x003ab4        0x2b8 build/default/production/WatchApp/watchFaces/digital_face.o
                  0x003b4c                  _DigitalFace_Init
                  0x003b72                  _DigitalFace_Draw
                  0x003c1a                  _DigitalFace_DrawUpdate
 .text            0x003d6c        0x2b0 build/default/production/WatchApp/pomodoroTimer/pomodoro.o
                  0x003e6a                  _Pomodoro_Init
                  0x003e8c                  _Pomodoro_Start
                  0x003ea8                  _Pomodoro_Pause
                  0x003eb8                  _Pomodoro_Reset
                  0x003ec0                  _Pomodoro_Update
                  0x003f1a                  _Pomodoro_Draw
                  0x003fe8                  _Pomodoro_HandleInput
 .text            0x00401c        0x26a build/default/production/WatchApp/watchFaces/analog_face.o
                  0x004166                  _AnalogFace_Init
                  0x004214                  _AnalogFace_DrawUpdate
                  0x00427e                  _AnalogFace_Draw
 .text            0x004286        0x262 build/default/production/adcDriver/ADC.o
                  0x0042c2                  _ADC_Init
                  0x004384                  _ADC_SetChannel
                  0x0043c6                  _ADC_ReadRaw
                  0x004414                  _ADC_ReadFloat
                  0x00449c                  _ADC_IsInitialized
                  0x0044a4                  _ADC_GetConfig
                  0x0044de                  _ADC_Disable
 .text            0x0044e8        0x22a build/default/production/WatchApp/watchCore/timekeeper.o
                  0x0044e8                  _Timekeeper_Init
                  0x004520                  _Timekeeper_SetTime
                  0x004566                  _Timekeeper_SetDate
                  0x0045ba                  _Timekeeper_GetTime
                  0x0046a4                  _Timekeeper_GetDate
                  0x0046b8                  _Timekeeper_GetMillis
                  0x0046c2                  _Timekeeper_Convert24to12
                  0x0046f2                  _Timekeeper_GetDaysInMonth
 .text            0x004712        0x1c8 build/default/production/oledDriver/oledC_shapeHandler.o
                  0x004712                  build/default/production/oledDriver/oledC_shapeHandler.o:_dummyshape
                  0x00471a                  _initShapesMem
                  0x004746                  _oledC_removeShape
                  0x00477c                  _oledC_getShape
                  0x004798                  _oledC_addShape
                  0x0047f2                  _oledC_redrawIndex
                  0x004810                  _oledC_redrawTo
                  0x00481e                  _oledC_redrawFrom
                  0x00482c                  _oledC_redrawSome
                  0x004878                  _oledC_eraseShape
                  0x0048a2                  _oledC_eraseAll
                  0x0048ce                  _oledC_redrawAll
 .text            0x0048da        0x1ba build/default/production/WatchApp/watchInput/accel_input.o
                  0x0049ec                  _AccelInput_Init
                  0x004a00                  _AccelInput_Check
 .text            0x004a94        0x1a8 build/default/production/switchDriver/Switch.o
                  0x004b3a                  _Switch_Init
                  0x004b8e                  _S1_WasPressed
                  0x004baa                  _S1_WasReleased
                  0x004bc6                  _S2_WasPressed
                  0x004be2                  _S2_WasReleased
                  0x004bfe                  _Switch_ResetState
 .text            0x004c3c        0x17a build/default/production/WatchApp/watchManagers/app_input_handler.o
                  0x004d7e                  _APP_HandleInputEvents
 .text            0x004db6        0x13e build/default/production/WatchApp/watchCore/alarm.o
                  0x004db6                  _Alarm_Init
                  0x004dbc                  _Alarm_Check
                  0x004e20                  _Alarm_SetTime
                  0x004e4e                  _Alarm_Enable
                  0x004e64                  _Alarm_Disable
                  0x004e80                  _Alarm_Toggle
                  0x004e98                  _Alarm_Dismiss
                  0x004ec0                  _Alarm_IsRinging
                  0x004ece                  _Alarm_Update
 .text            0x004ef4        0x12c build/default/production/WatchApp/watchInput/buttons.o
                  0x004ef4                  _Buttons_Init
                  0x004efc                  _Buttons_Update
                  0x004fee                  _Buttons_GetState
 .text            0x005020        0x12a build/default/production/WatchApp/watchInput/potentiometer.o
                  0x005020                  _Pot_Init
                  0x00504e                  _Pot_GetRaw
                  0x00505a                  _Pot_GetMapped
                  0x0050d8                  _Pot_GetMenuSelection
 .text            0x00514a        0x110 build/default/production/spiDriver/spi1_driver.o
                  0x00514a                  _spi1_close
                  0x005152                  _spi1_open
                  0x005172                  _spi1_exchangeByte
                  0x00518c                  _spi1_exchangeBlock
                  0x0051be                  _spi1_writeBlock
                  0x0051ec                  _spi1_readBlock
                  0x00521c                  _spi1_writeByte
                  0x005228                  _spi1_readByte
                  0x005232                  _spi1_isr
                  0x00524e                  _spi1_setSpiISR

.dinit            0x00525a        0x10e
 .dinit           0x00525a        0x10e data_init

.text             0x005368        0x5f6
 .text            0x005368         0xcc build/default/production/WatchApp/watchFaces/watch_face_common.o
                  0x005368                  _WatchFace_DrawAlarmIcon
                  0x0053ac                  _WatchFace_DrawDate
 .text            0x005434         0xca build/default/production/WatchApp/watchManagers/app_display_manager.o
                  0x0054c8                  _APP_UpdateDisplay
 .text            0x0054fe         0xbe build/default/production/accel3Driver/ACCEL3.o
                  0x0054fe                  _ACCEL3_Init
                  0x00555a                  _ACCEL3_ReadXYZ
 .text            0x0055bc         0xb8 build/default/production/Timers/Timers.o
                  0x0055bc                  _Timer1_Init
                  0x005602                  _Timer2_Init
                  0x005648                  _Timer_GetTicks
 .text            0x005674         0x70 build/default/production/System/pin_manager.o
                  0x005674                  _PIN_MANAGER_Initialize
 .text            0x0056e4         0x6c build/default/production/WatchApp/shared/watch_state.o
                  0x0056e4                  _Watch_GetState
                  0x0056ec                  _Watch_InitState
 .text            0x005750         0x68 build/default/production/WatchApp/watchFaces/alarm_face.o
                  0x005750                  _AlarmFace_Init
                  0x005766                  _AlarmFace_Draw
                  0x00577a                  _AlarmFace_DrawUpdate
 .text            0x0057b8         0x60 build/default/production/WatchApp/app_init.o
                  0x0057b8                  _APP_InitializeHardware
 .text            0x005818         0x56 build/default/production/System/delay.o
                  0x005818                  _DELAY_milliseconds
                  0x00583a                  _DELAY_microseconds
 .text            0x00586e         0x46 build/default/production/System/clock.o
                  0x00586e                  _CLOCK_Initialize
 .text            0x0058b4         0x42 build/default/production/WatchApp/watchManagers/app_time_manager.o
                  0x0058b4                  _APP_UpdateTimeAndAlarms
 .text            0x0058f6         0x28 build/default/production/System/interrupt_manager.o
                  0x005902                  _INTERRUPT_Initialize
 .text            0x00591e         0x24 build/default/production/WatchApp/watch_main.o
                  0x00591e                  _watch_main
 .text            0x005942         0x1c build/default/production/System/traps.o
                  0x005942                  _TRAPS_halt_on_error

.init.delay32     0x00595e         0x1c
 .init.delay32    0x00595e         0x1c c:/program files/microchip/xc16/v2.10/bin/bin/../../lib\libc99-pic30-elf.a(delay32da.Meo)
                  0x00595e                  ___delay32

.text             0x00597a         0x24
 .text            0x00597a         0x10 build/default/production/System/where_was_i.o
                  0x00597a                  _where_was_i
 .text            0x00598a          0xc build/default/production/System/system.o
                  0x00598a                  _SYSTEM_Initialize
 .text            0x005996          0x8 build/default/production/main.o
                  0x005996                  _main
